
clock_for_F103C8T6.elf:     file format elf32-littlearm

Sections:
Idx Name          Size      VMA       LMA       File off  Algn
  0 .isr_vector   0000010c  08000000  08000000  00010000  2**0
                  CONTENTS, ALLOC, LOAD, READONLY, DATA
  1 .text         00004960  0800010c  0800010c  0001010c  2**2
                  CONTENTS, ALLOC, LOAD, READONLY, CODE
  2 .rodata       000014f0  08004a6c  08004a6c  00014a6c  2**2
                  CONTENTS, ALLOC, LOAD, READONLY, DATA
  3 .ARM.extab    00000000  08005f5c  08005f5c  00020098  2**0
                  CONTENTS
  4 .ARM          00000000  08005f5c  08005f5c  00020098  2**0
                  CONTENTS
  5 .preinit_array 00000000  08005f5c  08005f5c  00020098  2**0
                  CONTENTS, ALLOC, LOAD, DATA
  6 .init_array   00000004  08005f5c  08005f5c  00015f5c  2**2
                  CONTENTS, ALLOC, LOAD, DATA
  7 .fini_array   00000004  08005f60  08005f60  00015f60  2**2
                  CONTENTS, ALLOC, LOAD, DATA
  8 .data         00000098  20000000  08005f64  00020000  2**2
                  CONTENTS, ALLOC, LOAD, DATA
  9 .bss          00000578  20000098  08005ffc  00020098  2**2
                  ALLOC
 10 ._user_heap_stack 00000600  20000610  08005ffc  00020610  2**0
                  ALLOC
 11 .ARM.attributes 00000029  00000000  00000000  00020098  2**0
                  CONTENTS, READONLY
 12 .debug_info   0000bed1  00000000  00000000  000200c1  2**0
                  CONTENTS, READONLY, DEBUGGING
 13 .debug_abbrev 00002b95  00000000  00000000  0002bf92  2**0
                  CONTENTS, READONLY, DEBUGGING
 14 .debug_aranges 00000b50  00000000  00000000  0002eb28  2**3
                  CONTENTS, READONLY, DEBUGGING
 15 .debug_rnglists 00000846  00000000  00000000  0002f678  2**0
                  CONTENTS, READONLY, DEBUGGING
 16 .debug_macro  0001af91  00000000  00000000  0002febe  2**0
                  CONTENTS, READONLY, DEBUGGING
 17 .debug_line   00013d97  00000000  00000000  0004ae4f  2**0
                  CONTENTS, READONLY, DEBUGGING
 18 .debug_str    00087858  00000000  00000000  0005ebe6  2**0
                  CONTENTS, READONLY, DEBUGGING
 19 .comment      000000be  00000000  00000000  000e643e  2**0
                  CONTENTS, READONLY
 20 .debug_frame  00002dfc  00000000  00000000  000e64fc  2**2
                  CONTENTS, READONLY, DEBUGGING
 21 .debug_ranges 00000048  00000000  00000000  000e92f8  2**0
                  CONTENTS, READONLY, DEBUGGING
 22 .debug_line_str 0000005b  00000000  00000000  000e9340  2**0
                  CONTENTS, READONLY, DEBUGGING

Disassembly of section .text:

0800010c <__do_global_dtors_aux>:
 800010c:	b510      	push	{r4, lr}
 800010e:	4c05      	ldr	r4, [pc, #20]	; (8000124 <__do_global_dtors_aux+0x18>)
 8000110:	7823      	ldrb	r3, [r4, #0]
 8000112:	b933      	cbnz	r3, 8000122 <__do_global_dtors_aux+0x16>
 8000114:	4b04      	ldr	r3, [pc, #16]	; (8000128 <__do_global_dtors_aux+0x1c>)
 8000116:	b113      	cbz	r3, 800011e <__do_global_dtors_aux+0x12>
 8000118:	4804      	ldr	r0, [pc, #16]	; (800012c <__do_global_dtors_aux+0x20>)
 800011a:	f3af 8000 	nop.w
 800011e:	2301      	movs	r3, #1
 8000120:	7023      	strb	r3, [r4, #0]
 8000122:	bd10      	pop	{r4, pc}
 8000124:	20000098 	.word	0x20000098
 8000128:	00000000 	.word	0x00000000
 800012c:	08004a54 	.word	0x08004a54

08000130 <frame_dummy>:
 8000130:	b508      	push	{r3, lr}
 8000132:	4b03      	ldr	r3, [pc, #12]	; (8000140 <frame_dummy+0x10>)
 8000134:	b11b      	cbz	r3, 800013e <frame_dummy+0xe>
 8000136:	4903      	ldr	r1, [pc, #12]	; (8000144 <frame_dummy+0x14>)
 8000138:	4803      	ldr	r0, [pc, #12]	; (8000148 <frame_dummy+0x18>)
 800013a:	f3af 8000 	nop.w
 800013e:	bd08      	pop	{r3, pc}
 8000140:	00000000 	.word	0x00000000
 8000144:	2000009c 	.word	0x2000009c
 8000148:	08004a54 	.word	0x08004a54

0800014c <show_line>:
 800014c:	b580      	push	{r7, lr}
 800014e:	b084      	sub	sp, #16
 8000150:	af02      	add	r7, sp, #8
 8000152:	2301      	movs	r3, #1
 8000154:	607b      	str	r3, [r7, #4]
 8000156:	f001 faab 	bl	80016b0 <OLED_NewFrame>
 800015a:	2300      	movs	r3, #0
 800015c:	4a12      	ldr	r2, [pc, #72]	; (80001a8 <show_line+0x5c>)
 800015e:	2127      	movs	r1, #39	; 0x27
 8000160:	200a      	movs	r0, #10
 8000162:	f001 fdb7 	bl	8001cd4 <OLED_DrawImage>
 8000166:	f44f 4100 	mov.w	r1, #32768	; 0x8000
 800016a:	4810      	ldr	r0, [pc, #64]	; (80001ac <show_line+0x60>)
 800016c:	f002 fa30 	bl	80025d0 <HAL_GPIO_ReadPin>
 8000170:	4603      	mov	r3, r0
 8000172:	2b00      	cmp	r3, #0
 8000174:	d011      	beq.n	800019a <show_line+0x4e>
 8000176:	687b      	ldr	r3, [r7, #4]
 8000178:	b2da      	uxtb	r2, r3
 800017a:	2300      	movs	r3, #0
 800017c:	9300      	str	r3, [sp, #0]
 800017e:	233f      	movs	r3, #63	; 0x3f
 8000180:	213f      	movs	r1, #63	; 0x3f
 8000182:	2000      	movs	r0, #0
 8000184:	f001 fcba 	bl	8001afc <OLED_DrawLine>
 8000188:	f001 fa9e 	bl	80016c8 <OLED_ShowFrame>
 800018c:	687b      	ldr	r3, [r7, #4]
 800018e:	3304      	adds	r3, #4
 8000190:	607b      	str	r3, [r7, #4]
 8000192:	687b      	ldr	r3, [r7, #4]
 8000194:	2b7f      	cmp	r3, #127	; 0x7f
 8000196:	dc02      	bgt.n	800019e <show_line+0x52>
 8000198:	e7e5      	b.n	8000166 <show_line+0x1a>
 800019a:	bf00      	nop
 800019c:	e000      	b.n	80001a0 <show_line+0x54>
 800019e:	bf00      	nop
 80001a0:	3708      	adds	r7, #8
 80001a2:	46bd      	mov	sp, r7
 80001a4:	bd80      	pop	{r7, pc}
 80001a6:	bf00      	nop
 80001a8:	08004c94 	.word	0x08004c94
 80001ac:	40010c00 	.word	0x40010c00

080001b0 <move_dino>:
 80001b0:	b580      	push	{r7, lr}
 80001b2:	b082      	sub	sp, #8
 80001b4:	af00      	add	r7, sp, #0
 80001b6:	4603      	mov	r3, r0
 80001b8:	6039      	str	r1, [r7, #0]
 80001ba:	80fb      	strh	r3, [r7, #6]
 80001bc:	683b      	ldr	r3, [r7, #0]
 80001be:	2b00      	cmp	r3, #0
 80001c0:	d107      	bne.n	80001d2 <move_dino+0x22>
 80001c2:	88fb      	ldrh	r3, [r7, #6]
 80001c4:	b2d9      	uxtb	r1, r3
 80001c6:	2300      	movs	r3, #0
 80001c8:	4a15      	ldr	r2, [pc, #84]	; (8000220 <move_dino+0x70>)
 80001ca:	200a      	movs	r0, #10
 80001cc:	f001 fd82 	bl	8001cd4 <OLED_DrawImage>
 80001d0:	e021      	b.n	8000216 <move_dino+0x66>
 80001d2:	683b      	ldr	r3, [r7, #0]
 80001d4:	2b01      	cmp	r3, #1
 80001d6:	d107      	bne.n	80001e8 <move_dino+0x38>
 80001d8:	88fb      	ldrh	r3, [r7, #6]
 80001da:	b2d9      	uxtb	r1, r3
 80001dc:	2300      	movs	r3, #0
 80001de:	4a11      	ldr	r2, [pc, #68]	; (8000224 <move_dino+0x74>)
 80001e0:	200a      	movs	r0, #10
 80001e2:	f001 fd77 	bl	8001cd4 <OLED_DrawImage>
 80001e6:	e016      	b.n	8000216 <move_dino+0x66>
 80001e8:	683b      	ldr	r3, [r7, #0]
 80001ea:	f1b3 3fff 	cmp.w	r3, #4294967295
 80001ee:	d107      	bne.n	8000200 <move_dino+0x50>
 80001f0:	88fb      	ldrh	r3, [r7, #6]
 80001f2:	b2d9      	uxtb	r1, r3
 80001f4:	2300      	movs	r3, #0
 80001f6:	4a0c      	ldr	r2, [pc, #48]	; (8000228 <move_dino+0x78>)
 80001f8:	200a      	movs	r0, #10
 80001fa:	f001 fd6b 	bl	8001cd4 <OLED_DrawImage>
 80001fe:	e00a      	b.n	8000216 <move_dino+0x66>
 8000200:	683b      	ldr	r3, [r7, #0]
 8000202:	f113 0f02 	cmn.w	r3, #2
 8000206:	d106      	bne.n	8000216 <move_dino+0x66>
 8000208:	88fb      	ldrh	r3, [r7, #6]
 800020a:	b2d9      	uxtb	r1, r3
 800020c:	2300      	movs	r3, #0
 800020e:	4a07      	ldr	r2, [pc, #28]	; (800022c <move_dino+0x7c>)
 8000210:	200a      	movs	r0, #10
 8000212:	f001 fd5f 	bl	8001cd4 <OLED_DrawImage>
 8000216:	bf00      	nop
 8000218:	3708      	adds	r7, #8
 800021a:	46bd      	mov	sp, r7
 800021c:	bd80      	pop	{r7, pc}
 800021e:	bf00      	nop
 8000220:	08004c04 	.word	0x08004c04
 8000224:	08004c4c 	.word	0x08004c4c
 8000228:	08004c94 	.word	0x08004c94
 800022c:	08004bbc 	.word	0x08004bbc

08000230 <move_tree>:
 8000230:	b580      	push	{r7, lr}
 8000232:	b082      	sub	sp, #8
 8000234:	af00      	add	r7, sp, #0
 8000236:	4603      	mov	r3, r0
 8000238:	6039      	str	r1, [r7, #0]
 800023a:	80fb      	strh	r3, [r7, #6]
 800023c:	f9b7 2006 	ldrsh.w	r2, [r7, #6]
 8000240:	683b      	ldr	r3, [r7, #0]
 8000242:	781b      	ldrb	r3, [r3, #0]
 8000244:	f1c3 037f 	rsb	r3, r3, #127	; 0x7f
 8000248:	429a      	cmp	r2, r3
 800024a:	dc0b      	bgt.n	8000264 <move_tree+0x34>
 800024c:	88fb      	ldrh	r3, [r7, #6]
 800024e:	b2d8      	uxtb	r0, r3
 8000250:	683b      	ldr	r3, [r7, #0]
 8000252:	785b      	ldrb	r3, [r3, #1]
 8000254:	f1c3 033f 	rsb	r3, r3, #63	; 0x3f
 8000258:	b2d9      	uxtb	r1, r3
 800025a:	2300      	movs	r3, #0
 800025c:	683a      	ldr	r2, [r7, #0]
 800025e:	f001 fd39 	bl	8001cd4 <OLED_DrawImage>
 8000262:	e000      	b.n	8000266 <move_tree+0x36>
 8000264:	bf00      	nop
 8000266:	3708      	adds	r7, #8
 8000268:	46bd      	mov	sp, r7
 800026a:	bd80      	pop	{r7, pc}

0800026c <display_score>:
 800026c:	b580      	push	{r7, lr}
 800026e:	b084      	sub	sp, #16
 8000270:	af02      	add	r7, sp, #8
 8000272:	6078      	str	r0, [r7, #4]
 8000274:	460b      	mov	r3, r1
 8000276:	70fb      	strb	r3, [r7, #3]
 8000278:	f997 3003 	ldrsb.w	r3, [r7, #3]
 800027c:	2b00      	cmp	r3, #0
 800027e:	d115      	bne.n	80002ac <display_score+0x40>
 8000280:	687a      	ldr	r2, [r7, #4]
 8000282:	4918      	ldr	r1, [pc, #96]	; (80002e4 <display_score+0x78>)
 8000284:	4818      	ldr	r0, [pc, #96]	; (80002e8 <display_score+0x7c>)
 8000286:	f003 ffdd 	bl	8004244 <siprintf>
 800028a:	2300      	movs	r3, #0
 800028c:	9300      	str	r3, [sp, #0]
 800028e:	4b17      	ldr	r3, [pc, #92]	; (80002ec <display_score+0x80>)
 8000290:	4a17      	ldr	r2, [pc, #92]	; (80002f0 <display_score+0x84>)
 8000292:	2103      	movs	r1, #3
 8000294:	2048      	movs	r0, #72	; 0x48
 8000296:	f001 fd93 	bl	8001dc0 <OLED_PrintString>
 800029a:	2300      	movs	r3, #0
 800029c:	9300      	str	r3, [sp, #0]
 800029e:	4b13      	ldr	r3, [pc, #76]	; (80002ec <display_score+0x80>)
 80002a0:	4a11      	ldr	r2, [pc, #68]	; (80002e8 <display_score+0x7c>)
 80002a2:	2103      	movs	r1, #3
 80002a4:	2066      	movs	r0, #102	; 0x66
 80002a6:	f001 fd8b 	bl	8001dc0 <OLED_PrintString>
 80002aa:	e016      	b.n	80002da <display_score+0x6e>
 80002ac:	4b11      	ldr	r3, [pc, #68]	; (80002f4 <display_score+0x88>)
 80002ae:	681b      	ldr	r3, [r3, #0]
 80002b0:	461a      	mov	r2, r3
 80002b2:	490c      	ldr	r1, [pc, #48]	; (80002e4 <display_score+0x78>)
 80002b4:	480c      	ldr	r0, [pc, #48]	; (80002e8 <display_score+0x7c>)
 80002b6:	f003 ffc5 	bl	8004244 <siprintf>
 80002ba:	2300      	movs	r3, #0
 80002bc:	9300      	str	r3, [sp, #0]
 80002be:	4b0b      	ldr	r3, [pc, #44]	; (80002ec <display_score+0x80>)
 80002c0:	4a0d      	ldr	r2, [pc, #52]	; (80002f8 <display_score+0x8c>)
 80002c2:	2116      	movs	r1, #22
 80002c4:	203c      	movs	r0, #60	; 0x3c
 80002c6:	f001 fd7b 	bl	8001dc0 <OLED_PrintString>
 80002ca:	2300      	movs	r3, #0
 80002cc:	9300      	str	r3, [sp, #0]
 80002ce:	4b07      	ldr	r3, [pc, #28]	; (80002ec <display_score+0x80>)
 80002d0:	4a05      	ldr	r2, [pc, #20]	; (80002e8 <display_score+0x7c>)
 80002d2:	2116      	movs	r1, #22
 80002d4:	2066      	movs	r0, #102	; 0x66
 80002d6:	f001 fd73 	bl	8001dc0 <OLED_PrintString>
 80002da:	bf00      	nop
 80002dc:	3708      	adds	r7, #8
 80002de:	46bd      	mov	sp, r7
 80002e0:	bd80      	pop	{r7, pc}
 80002e2:	bf00      	nop
 80002e4:	08004a84 	.word	0x08004a84
 80002e8:	200000b8 	.word	0x200000b8
 80002ec:	08005efc 	.word	0x08005efc
 80002f0:	08004a88 	.word	0x08004a88
 80002f4:	200000b4 	.word	0x200000b4
 80002f8:	08004a94 	.word	0x08004a94

080002fc <tree_collision_judge>:
 80002fc:	b580      	push	{r7, lr}
 80002fe:	b086      	sub	sp, #24
 8000300:	af02      	add	r7, sp, #8
 8000302:	60ba      	str	r2, [r7, #8]
 8000304:	607b      	str	r3, [r7, #4]
 8000306:	4603      	mov	r3, r0
 8000308:	81fb      	strh	r3, [r7, #14]
 800030a:	460b      	mov	r3, r1
 800030c:	81bb      	strh	r3, [r7, #12]
 800030e:	f9b7 3018 	ldrsh.w	r3, [r7, #24]
 8000312:	f06f 0101 	mvn.w	r1, #1
 8000316:	4618      	mov	r0, r3
 8000318:	f7ff ff4a 	bl	80001b0 <move_dino>
 800031c:	f9b7 300e 	ldrsh.w	r3, [r7, #14]
 8000320:	6a39      	ldr	r1, [r7, #32]
 8000322:	4618      	mov	r0, r3
 8000324:	f7ff ff84 	bl	8000230 <move_tree>
 8000328:	f9b7 300c 	ldrsh.w	r3, [r7, #12]
 800032c:	6a79      	ldr	r1, [r7, #36]	; 0x24
 800032e:	4618      	mov	r0, r3
 8000330:	f7ff ff7e 	bl	8000230 <move_tree>
 8000334:	2300      	movs	r3, #0
 8000336:	9300      	str	r3, [sp, #0]
 8000338:	233f      	movs	r3, #63	; 0x3f
 800033a:	227f      	movs	r2, #127	; 0x7f
 800033c:	213f      	movs	r1, #63	; 0x3f
 800033e:	2000      	movs	r0, #0
 8000340:	f001 fbdc 	bl	8001afc <OLED_DrawLine>
 8000344:	2100      	movs	r1, #0
 8000346:	68b8      	ldr	r0, [r7, #8]
 8000348:	f7ff ff90 	bl	800026c <display_score>
 800034c:	4b0d      	ldr	r3, [pc, #52]	; (8000384 <tree_collision_judge+0x88>)
 800034e:	681b      	ldr	r3, [r3, #0]
 8000350:	68ba      	ldr	r2, [r7, #8]
 8000352:	429a      	cmp	r2, r3
 8000354:	dd0b      	ble.n	800036e <tree_collision_judge+0x72>
 8000356:	4a0b      	ldr	r2, [pc, #44]	; (8000384 <tree_collision_judge+0x88>)
 8000358:	68bb      	ldr	r3, [r7, #8]
 800035a:	6013      	str	r3, [r2, #0]
 800035c:	2300      	movs	r3, #0
 800035e:	9300      	str	r3, [sp, #0]
 8000360:	4b09      	ldr	r3, [pc, #36]	; (8000388 <tree_collision_judge+0x8c>)
 8000362:	4a0a      	ldr	r2, [pc, #40]	; (800038c <tree_collision_judge+0x90>)
 8000364:	2116      	movs	r1, #22
 8000366:	204b      	movs	r0, #75	; 0x4b
 8000368:	f001 fd2a 	bl	8001dc0 <OLED_PrintString>
 800036c:	e003      	b.n	8000376 <tree_collision_judge+0x7a>
 800036e:	2101      	movs	r1, #1
 8000370:	68b8      	ldr	r0, [r7, #8]
 8000372:	f7ff ff7b 	bl	800026c <display_score>
 8000376:	f001 f9a7 	bl	80016c8 <OLED_ShowFrame>
 800037a:	bf00      	nop
 800037c:	3710      	adds	r7, #16
 800037e:	46bd      	mov	sp, r7
 8000380:	bd80      	pop	{r7, pc}
 8000382:	bf00      	nop
 8000384:	200000b4 	.word	0x200000b4
 8000388:	08005efc 	.word	0x08005efc
 800038c:	08004aa4 	.word	0x08004aa4

08000390 <dino_play>:
 8000390:	b580      	push	{r7, lr}
 8000392:	b08e      	sub	sp, #56	; 0x38
 8000394:	af04      	add	r7, sp, #16
 8000396:	23fc      	movs	r3, #252	; 0xfc
 8000398:	813b      	strh	r3, [r7, #8]
 800039a:	f240 137d 	movw	r3, #381	; 0x17d
 800039e:	80fb      	strh	r3, [r7, #6]
 80003a0:	893b      	ldrh	r3, [r7, #8]
 80003a2:	33c8      	adds	r3, #200	; 0xc8
 80003a4:	b29b      	uxth	r3, r3
 80003a6:	84fb      	strh	r3, [r7, #38]	; 0x26
 80003a8:	88fb      	ldrh	r3, [r7, #6]
 80003aa:	33c8      	adds	r3, #200	; 0xc8
 80003ac:	b29b      	uxth	r3, r3
 80003ae:	84bb      	strh	r3, [r7, #36]	; 0x24
 80003b0:	f001 fe4e 	bl	8002050 <HAL_GetTick>
 80003b4:	4603      	mov	r3, r0
 80003b6:	f003 0307 	and.w	r3, r3, #7
 80003ba:	2b00      	cmp	r3, #0
 80003bc:	d001      	beq.n	80003c2 <dino_play+0x32>
 80003be:	4bae      	ldr	r3, [pc, #696]	; (8000678 <dino_play+0x2e8>)
 80003c0:	e000      	b.n	80003c4 <dino_play+0x34>
 80003c2:	4bae      	ldr	r3, [pc, #696]	; (800067c <dino_play+0x2ec>)
 80003c4:	623b      	str	r3, [r7, #32]
 80003c6:	f001 fe43 	bl	8002050 <HAL_GetTick>
 80003ca:	4601      	mov	r1, r0
 80003cc:	4bac      	ldr	r3, [pc, #688]	; (8000680 <dino_play+0x2f0>)
 80003ce:	fba3 2301 	umull	r2, r3, r3, r1
 80003d2:	089a      	lsrs	r2, r3, #2
 80003d4:	4613      	mov	r3, r2
 80003d6:	009b      	lsls	r3, r3, #2
 80003d8:	4413      	add	r3, r2
 80003da:	1aca      	subs	r2, r1, r3
 80003dc:	2a00      	cmp	r2, #0
 80003de:	d001      	beq.n	80003e4 <dino_play+0x54>
 80003e0:	4ba5      	ldr	r3, [pc, #660]	; (8000678 <dino_play+0x2e8>)
 80003e2:	e000      	b.n	80003e6 <dino_play+0x56>
 80003e4:	4ba5      	ldr	r3, [pc, #660]	; (800067c <dino_play+0x2ec>)
 80003e6:	61fb      	str	r3, [r7, #28]
 80003e8:	2315      	movs	r3, #21
 80003ea:	330a      	adds	r3, #10
 80003ec:	b29b      	uxth	r3, r3
 80003ee:	80bb      	strh	r3, [r7, #4]
 80003f0:	2327      	movs	r3, #39	; 0x27
 80003f2:	837b      	strh	r3, [r7, #26]
 80003f4:	2300      	movs	r3, #0
 80003f6:	617b      	str	r3, [r7, #20]
 80003f8:	2300      	movs	r3, #0
 80003fa:	613b      	str	r3, [r7, #16]
 80003fc:	2300      	movs	r3, #0
 80003fe:	60fb      	str	r3, [r7, #12]
 8000400:	2300      	movs	r3, #0
 8000402:	72fb      	strb	r3, [r7, #11]
 8000404:	f001 f954 	bl	80016b0 <OLED_NewFrame>
 8000408:	f44f 5180 	mov.w	r1, #4096	; 0x1000
 800040c:	489d      	ldr	r0, [pc, #628]	; (8000684 <dino_play+0x2f4>)
 800040e:	f002 f8df 	bl	80025d0 <HAL_GPIO_ReadPin>
 8000412:	4603      	mov	r3, r0
 8000414:	2b00      	cmp	r3, #0
 8000416:	d00f      	beq.n	8000438 <dino_play+0xa8>
 8000418:	f44f 5100 	mov.w	r1, #8192	; 0x2000
 800041c:	4899      	ldr	r0, [pc, #612]	; (8000684 <dino_play+0x2f4>)
 800041e:	f002 f8d7 	bl	80025d0 <HAL_GPIO_ReadPin>
 8000422:	4603      	mov	r3, r0
 8000424:	2b00      	cmp	r3, #0
 8000426:	d007      	beq.n	8000438 <dino_play+0xa8>
 8000428:	f44f 4180 	mov.w	r1, #16384	; 0x4000
 800042c:	4895      	ldr	r0, [pc, #596]	; (8000684 <dino_play+0x2f4>)
 800042e:	f002 f8cf 	bl	80025d0 <HAL_GPIO_ReadPin>
 8000432:	4603      	mov	r3, r0
 8000434:	2b00      	cmp	r3, #0
 8000436:	d105      	bne.n	8000444 <dino_play+0xb4>
 8000438:	697b      	ldr	r3, [r7, #20]
 800043a:	2b00      	cmp	r3, #0
 800043c:	d10b      	bne.n	8000456 <dino_play+0xc6>
 800043e:	2301      	movs	r3, #1
 8000440:	617b      	str	r3, [r7, #20]
 8000442:	e008      	b.n	8000456 <dino_play+0xc6>
 8000444:	f44f 4100 	mov.w	r1, #32768	; 0x8000
 8000448:	488e      	ldr	r0, [pc, #568]	; (8000684 <dino_play+0x2f4>)
 800044a:	f002 f8c1 	bl	80025d0 <HAL_GPIO_ReadPin>
 800044e:	4603      	mov	r3, r0
 8000450:	2b00      	cmp	r3, #0
 8000452:	f000 814f 	beq.w	80006f4 <dino_play+0x364>
 8000456:	f9b7 2026 	ldrsh.w	r2, [r7, #38]	; 0x26
 800045a:	f9b7 1004 	ldrsh.w	r1, [r7, #4]
 800045e:	697b      	ldr	r3, [r7, #20]
 8000460:	2b05      	cmp	r3, #5
 8000462:	bfa8      	it	ge
 8000464:	2305      	movge	r3, #5
 8000466:	1acb      	subs	r3, r1, r3
 8000468:	429a      	cmp	r2, r3
 800046a:	dc29      	bgt.n	80004c0 <dino_play+0x130>
 800046c:	f9b7 3026 	ldrsh.w	r3, [r7, #38]	; 0x26
 8000470:	2b0b      	cmp	r3, #11
 8000472:	dd25      	ble.n	80004c0 <dino_play+0x130>
 8000474:	f9b7 301a 	ldrsh.w	r3, [r7, #26]
 8000478:	2217      	movs	r2, #23
 800047a:	441a      	add	r2, r3
 800047c:	6a3b      	ldr	r3, [r7, #32]
 800047e:	785b      	ldrb	r3, [r3, #1]
 8000480:	f1c3 033f 	rsb	r3, r3, #63	; 0x3f
 8000484:	429a      	cmp	r2, r3
 8000486:	db1b      	blt.n	80004c0 <dino_play+0x130>
 8000488:	f9b7 1024 	ldrsh.w	r1, [r7, #36]	; 0x24
 800048c:	f9b7 0026 	ldrsh.w	r0, [r7, #38]	; 0x26
 8000490:	69fb      	ldr	r3, [r7, #28]
 8000492:	9303      	str	r3, [sp, #12]
 8000494:	6a3b      	ldr	r3, [r7, #32]
 8000496:	9302      	str	r3, [sp, #8]
 8000498:	f9b7 3004 	ldrsh.w	r3, [r7, #4]
 800049c:	9301      	str	r3, [sp, #4]
 800049e:	f9b7 301a 	ldrsh.w	r3, [r7, #26]
 80004a2:	9300      	str	r3, [sp, #0]
 80004a4:	697b      	ldr	r3, [r7, #20]
 80004a6:	68fa      	ldr	r2, [r7, #12]
 80004a8:	f7ff ff28 	bl	80002fc <tree_collision_judge>
 80004ac:	bf00      	nop
 80004ae:	f44f 4100 	mov.w	r1, #32768	; 0x8000
 80004b2:	4874      	ldr	r0, [pc, #464]	; (8000684 <dino_play+0x2f4>)
 80004b4:	f002 f88c 	bl	80025d0 <HAL_GPIO_ReadPin>
 80004b8:	4603      	mov	r3, r0
 80004ba:	2b00      	cmp	r3, #0
 80004bc:	d1f7      	bne.n	80004ae <dino_play+0x11e>
 80004be:	e11a      	b.n	80006f6 <dino_play+0x366>
 80004c0:	f9b7 2024 	ldrsh.w	r2, [r7, #36]	; 0x24
 80004c4:	f9b7 1004 	ldrsh.w	r1, [r7, #4]
 80004c8:	697b      	ldr	r3, [r7, #20]
 80004ca:	2b05      	cmp	r3, #5
 80004cc:	bfa8      	it	ge
 80004ce:	2305      	movge	r3, #5
 80004d0:	1acb      	subs	r3, r1, r3
 80004d2:	429a      	cmp	r2, r3
 80004d4:	dc29      	bgt.n	800052a <dino_play+0x19a>
 80004d6:	f9b7 3024 	ldrsh.w	r3, [r7, #36]	; 0x24
 80004da:	2b0b      	cmp	r3, #11
 80004dc:	dd25      	ble.n	800052a <dino_play+0x19a>
 80004de:	f9b7 301a 	ldrsh.w	r3, [r7, #26]
 80004e2:	2217      	movs	r2, #23
 80004e4:	441a      	add	r2, r3
 80004e6:	69fb      	ldr	r3, [r7, #28]
 80004e8:	785b      	ldrb	r3, [r3, #1]
 80004ea:	f1c3 033f 	rsb	r3, r3, #63	; 0x3f
 80004ee:	429a      	cmp	r2, r3
 80004f0:	db1b      	blt.n	800052a <dino_play+0x19a>
 80004f2:	f9b7 1026 	ldrsh.w	r1, [r7, #38]	; 0x26
 80004f6:	f9b7 0024 	ldrsh.w	r0, [r7, #36]	; 0x24
 80004fa:	69fb      	ldr	r3, [r7, #28]
 80004fc:	9303      	str	r3, [sp, #12]
 80004fe:	6a3b      	ldr	r3, [r7, #32]
 8000500:	9302      	str	r3, [sp, #8]
 8000502:	f9b7 3004 	ldrsh.w	r3, [r7, #4]
 8000506:	9301      	str	r3, [sp, #4]
 8000508:	f9b7 301a 	ldrsh.w	r3, [r7, #26]
 800050c:	9300      	str	r3, [sp, #0]
 800050e:	697b      	ldr	r3, [r7, #20]
 8000510:	68fa      	ldr	r2, [r7, #12]
 8000512:	f7ff fef3 	bl	80002fc <tree_collision_judge>
 8000516:	bf00      	nop
 8000518:	f44f 4100 	mov.w	r1, #32768	; 0x8000
 800051c:	4859      	ldr	r0, [pc, #356]	; (8000684 <dino_play+0x2f4>)
 800051e:	f002 f857 	bl	80025d0 <HAL_GPIO_ReadPin>
 8000522:	4603      	mov	r3, r0
 8000524:	2b00      	cmp	r3, #0
 8000526:	d1f7      	bne.n	8000518 <dino_play+0x188>
 8000528:	e0e5      	b.n	80006f6 <dino_play+0x366>
 800052a:	697b      	ldr	r3, [r7, #20]
 800052c:	2b00      	cmp	r3, #0
 800052e:	dd0f      	ble.n	8000550 <dino_play+0x1c0>
 8000530:	697b      	ldr	r3, [r7, #20]
 8000532:	3b01      	subs	r3, #1
 8000534:	4a54      	ldr	r2, [pc, #336]	; (8000688 <dino_play+0x2f8>)
 8000536:	5cd3      	ldrb	r3, [r2, r3]
 8000538:	f1c3 0327 	rsb	r3, r3, #39	; 0x27
 800053c:	b29b      	uxth	r3, r3
 800053e:	837b      	strh	r3, [r7, #26]
 8000540:	697b      	ldr	r3, [r7, #20]
 8000542:	3301      	adds	r3, #1
 8000544:	617b      	str	r3, [r7, #20]
 8000546:	697b      	ldr	r3, [r7, #20]
 8000548:	2b26      	cmp	r3, #38	; 0x26
 800054a:	dd01      	ble.n	8000550 <dino_play+0x1c0>
 800054c:	2300      	movs	r3, #0
 800054e:	617b      	str	r3, [r7, #20]
 8000550:	693b      	ldr	r3, [r7, #16]
 8000552:	3301      	adds	r3, #1
 8000554:	613b      	str	r3, [r7, #16]
 8000556:	693b      	ldr	r3, [r7, #16]
 8000558:	4a4c      	ldr	r2, [pc, #304]	; (800068c <dino_play+0x2fc>)
 800055a:	fb82 1203 	smull	r1, r2, r2, r3
 800055e:	1052      	asrs	r2, r2, #1
 8000560:	17db      	asrs	r3, r3, #31
 8000562:	1ad3      	subs	r3, r2, r3
 8000564:	60fb      	str	r3, [r7, #12]
 8000566:	2100      	movs	r1, #0
 8000568:	68f8      	ldr	r0, [r7, #12]
 800056a:	f7ff fe7f 	bl	800026c <display_score>
 800056e:	697b      	ldr	r3, [r7, #20]
 8000570:	2b00      	cmp	r3, #0
 8000572:	d007      	beq.n	8000584 <dino_play+0x1f4>
 8000574:	f9b7 301a 	ldrsh.w	r3, [r7, #26]
 8000578:	f04f 31ff 	mov.w	r1, #4294967295
 800057c:	4618      	mov	r0, r3
 800057e:	f7ff fe17 	bl	80001b0 <move_dino>
 8000582:	e017      	b.n	80005b4 <dino_play+0x224>
 8000584:	f997 300b 	ldrsb.w	r3, [r7, #11]
 8000588:	2b04      	cmp	r3, #4
 800058a:	bfcc      	ite	gt
 800058c:	2301      	movgt	r3, #1
 800058e:	2300      	movle	r3, #0
 8000590:	b2db      	uxtb	r3, r3
 8000592:	461a      	mov	r2, r3
 8000594:	f9b7 301a 	ldrsh.w	r3, [r7, #26]
 8000598:	4611      	mov	r1, r2
 800059a:	4618      	mov	r0, r3
 800059c:	f7ff fe08 	bl	80001b0 <move_dino>
 80005a0:	7afb      	ldrb	r3, [r7, #11]
 80005a2:	3301      	adds	r3, #1
 80005a4:	b2db      	uxtb	r3, r3
 80005a6:	72fb      	strb	r3, [r7, #11]
 80005a8:	f997 300b 	ldrsb.w	r3, [r7, #11]
 80005ac:	2b09      	cmp	r3, #9
 80005ae:	dd01      	ble.n	80005b4 <dino_play+0x224>
 80005b0:	2300      	movs	r3, #0
 80005b2:	72fb      	strb	r3, [r7, #11]
 80005b4:	f9b7 3026 	ldrsh.w	r3, [r7, #38]	; 0x26
 80005b8:	6a39      	ldr	r1, [r7, #32]
 80005ba:	4618      	mov	r0, r3
 80005bc:	f7ff fe38 	bl	8000230 <move_tree>
 80005c0:	f9b7 3024 	ldrsh.w	r3, [r7, #36]	; 0x24
 80005c4:	69f9      	ldr	r1, [r7, #28]
 80005c6:	4618      	mov	r0, r3
 80005c8:	f7ff fe32 	bl	8000230 <move_tree>
 80005cc:	2300      	movs	r3, #0
 80005ce:	9300      	str	r3, [sp, #0]
 80005d0:	233f      	movs	r3, #63	; 0x3f
 80005d2:	227f      	movs	r2, #127	; 0x7f
 80005d4:	213f      	movs	r1, #63	; 0x3f
 80005d6:	2000      	movs	r0, #0
 80005d8:	f001 fa90 	bl	8001afc <OLED_DrawLine>
 80005dc:	8cfb      	ldrh	r3, [r7, #38]	; 0x26
 80005de:	3b02      	subs	r3, #2
 80005e0:	b29b      	uxth	r3, r3
 80005e2:	84fb      	strh	r3, [r7, #38]	; 0x26
 80005e4:	8cbb      	ldrh	r3, [r7, #36]	; 0x24
 80005e6:	3b02      	subs	r3, #2
 80005e8:	b29b      	uxth	r3, r3
 80005ea:	84bb      	strh	r3, [r7, #36]	; 0x24
 80005ec:	f9b7 3026 	ldrsh.w	r3, [r7, #38]	; 0x26
 80005f0:	2b00      	cmp	r3, #0
 80005f2:	dc1f      	bgt.n	8000634 <dino_play+0x2a4>
 80005f4:	f001 fd2c 	bl	8002050 <HAL_GetTick>
 80005f8:	4603      	mov	r3, r0
 80005fa:	4a21      	ldr	r2, [pc, #132]	; (8000680 <dino_play+0x2f0>)
 80005fc:	fba2 2303 	umull	r2, r3, r2, r3
 8000600:	08d9      	lsrs	r1, r3, #3
 8000602:	4b1f      	ldr	r3, [pc, #124]	; (8000680 <dino_play+0x2f0>)
 8000604:	fba3 2301 	umull	r2, r3, r3, r1
 8000608:	091a      	lsrs	r2, r3, #4
 800060a:	4613      	mov	r3, r2
 800060c:	009b      	lsls	r3, r3, #2
 800060e:	4413      	add	r3, r2
 8000610:	009b      	lsls	r3, r3, #2
 8000612:	1aca      	subs	r2, r1, r3
 8000614:	b292      	uxth	r2, r2
 8000616:	893b      	ldrh	r3, [r7, #8]
 8000618:	4413      	add	r3, r2
 800061a:	b29b      	uxth	r3, r3
 800061c:	84fb      	strh	r3, [r7, #38]	; 0x26
 800061e:	f001 fd17 	bl	8002050 <HAL_GetTick>
 8000622:	4603      	mov	r3, r0
 8000624:	f003 0303 	and.w	r3, r3, #3
 8000628:	2b00      	cmp	r3, #0
 800062a:	d001      	beq.n	8000630 <dino_play+0x2a0>
 800062c:	4b12      	ldr	r3, [pc, #72]	; (8000678 <dino_play+0x2e8>)
 800062e:	e000      	b.n	8000632 <dino_play+0x2a2>
 8000630:	4b12      	ldr	r3, [pc, #72]	; (800067c <dino_play+0x2ec>)
 8000632:	623b      	str	r3, [r7, #32]
 8000634:	f9b7 3024 	ldrsh.w	r3, [r7, #36]	; 0x24
 8000638:	2b00      	cmp	r3, #0
 800063a:	dc2b      	bgt.n	8000694 <dino_play+0x304>
 800063c:	f001 fd08 	bl	8002050 <HAL_GetTick>
 8000640:	4603      	mov	r3, r0
 8000642:	4a0f      	ldr	r2, [pc, #60]	; (8000680 <dino_play+0x2f0>)
 8000644:	fba2 2303 	umull	r2, r3, r2, r3
 8000648:	08d9      	lsrs	r1, r3, #3
 800064a:	4b0d      	ldr	r3, [pc, #52]	; (8000680 <dino_play+0x2f0>)
 800064c:	fba3 2301 	umull	r2, r3, r3, r1
 8000650:	091a      	lsrs	r2, r3, #4
 8000652:	4613      	mov	r3, r2
 8000654:	009b      	lsls	r3, r3, #2
 8000656:	4413      	add	r3, r2
 8000658:	009b      	lsls	r3, r3, #2
 800065a:	1aca      	subs	r2, r1, r3
 800065c:	b292      	uxth	r2, r2
 800065e:	88fb      	ldrh	r3, [r7, #6]
 8000660:	4413      	add	r3, r2
 8000662:	b29b      	uxth	r3, r3
 8000664:	84bb      	strh	r3, [r7, #36]	; 0x24
 8000666:	f001 fcf3 	bl	8002050 <HAL_GetTick>
 800066a:	4603      	mov	r3, r0
 800066c:	f003 0301 	and.w	r3, r3, #1
 8000670:	2b00      	cmp	r3, #0
 8000672:	d00d      	beq.n	8000690 <dino_play+0x300>
 8000674:	4b00      	ldr	r3, [pc, #0]	; (8000678 <dino_play+0x2e8>)
 8000676:	e00c      	b.n	8000692 <dino_play+0x302>
 8000678:	08004ca8 	.word	0x08004ca8
 800067c:	08004cd4 	.word	0x08004cd4
 8000680:	cccccccd 	.word	0xcccccccd
 8000684:	40010c00 	.word	0x40010c00
 8000688:	08004cdc 	.word	0x08004cdc
 800068c:	66666667 	.word	0x66666667
 8000690:	4b1a      	ldr	r3, [pc, #104]	; (80006fc <dino_play+0x36c>)
 8000692:	61fb      	str	r3, [r7, #28]
 8000694:	8cfa      	ldrh	r2, [r7, #38]	; 0x26
 8000696:	8cbb      	ldrh	r3, [r7, #36]	; 0x24
 8000698:	1ad3      	subs	r3, r2, r3
 800069a:	b29b      	uxth	r3, r3
 800069c:	b21a      	sxth	r2, r3
 800069e:	4b18      	ldr	r3, [pc, #96]	; (8000700 <dino_play+0x370>)
 80006a0:	801a      	strh	r2, [r3, #0]
 80006a2:	4b17      	ldr	r3, [pc, #92]	; (8000700 <dino_play+0x370>)
 80006a4:	f9b3 3000 	ldrsh.w	r3, [r3]
 80006a8:	2b00      	cmp	r3, #0
 80006aa:	dd0d      	ble.n	80006c8 <dino_play+0x338>
 80006ac:	4b14      	ldr	r3, [pc, #80]	; (8000700 <dino_play+0x370>)
 80006ae:	f9b3 3000 	ldrsh.w	r3, [r3]
 80006b2:	2b2e      	cmp	r3, #46	; 0x2e
 80006b4:	dc08      	bgt.n	80006c8 <dino_play+0x338>
 80006b6:	8cfa      	ldrh	r2, [r7, #38]	; 0x26
 80006b8:	4b11      	ldr	r3, [pc, #68]	; (8000700 <dino_play+0x370>)
 80006ba:	f9b3 3000 	ldrsh.w	r3, [r3]
 80006be:	b29b      	uxth	r3, r3
 80006c0:	4413      	add	r3, r2
 80006c2:	b29b      	uxth	r3, r3
 80006c4:	84fb      	strh	r3, [r7, #38]	; 0x26
 80006c6:	e012      	b.n	80006ee <dino_play+0x35e>
 80006c8:	4b0d      	ldr	r3, [pc, #52]	; (8000700 <dino_play+0x370>)
 80006ca:	f9b3 3000 	ldrsh.w	r3, [r3]
 80006ce:	2b00      	cmp	r3, #0
 80006d0:	da0d      	bge.n	80006ee <dino_play+0x35e>
 80006d2:	4b0b      	ldr	r3, [pc, #44]	; (8000700 <dino_play+0x370>)
 80006d4:	f9b3 3000 	ldrsh.w	r3, [r3]
 80006d8:	f113 0f2e 	cmn.w	r3, #46	; 0x2e
 80006dc:	db07      	blt.n	80006ee <dino_play+0x35e>
 80006de:	8cba      	ldrh	r2, [r7, #36]	; 0x24
 80006e0:	4b07      	ldr	r3, [pc, #28]	; (8000700 <dino_play+0x370>)
 80006e2:	f9b3 3000 	ldrsh.w	r3, [r3]
 80006e6:	b29b      	uxth	r3, r3
 80006e8:	4413      	add	r3, r2
 80006ea:	b29b      	uxth	r3, r3
 80006ec:	84bb      	strh	r3, [r7, #36]	; 0x24
 80006ee:	f000 ffeb 	bl	80016c8 <OLED_ShowFrame>
 80006f2:	e687      	b.n	8000404 <dino_play+0x74>
 80006f4:	bf00      	nop
 80006f6:	3728      	adds	r7, #40	; 0x28
 80006f8:	46bd      	mov	sp, r7
 80006fa:	bd80      	pop	{r7, pc}
 80006fc:	08004cd4 	.word	0x08004cd4
 8000700:	200000c8 	.word	0x200000c8

08000704 <game_init>:
unsigned long game_total_time = 0;                 // 游戏时间
unsigned long level_time = 0;                      // 游戏时间
int spaceship_position_y = 30;                     // 飞机初始位置（纵坐标）

void game_init()
{
 8000704:	b480      	push	{r7}
 8000706:	af00      	add	r7, sp, #0
    metx = 0;
 8000708:	4b28      	ldr	r3, [pc, #160]	; (80007ac <game_init+0xa8>)
 800070a:	2200      	movs	r2, #0
 800070c:	601a      	str	r2, [r3, #0]
    mety = 0;
 800070e:	4b28      	ldr	r3, [pc, #160]	; (80007b0 <game_init+0xac>)
 8000710:	2200      	movs	r2, #0
 8000712:	601a      	str	r2, [r3, #0]
    bullet_exit = 0;
 8000714:	4b27      	ldr	r3, [pc, #156]	; (80007b4 <game_init+0xb0>)
 8000716:	2200      	movs	r2, #0
 8000718:	601a      	str	r2, [r3, #0]
    flying_saucer_position_y = 8;
 800071a:	4b27      	ldr	r3, [pc, #156]	; (80007b8 <game_init+0xb4>)
 800071c:	2208      	movs	r2, #8
 800071e:	601a      	str	r2, [r3, #0]
    direction = 0;
 8000720:	4b26      	ldr	r3, [pc, #152]	; (80007bc <game_init+0xb8>)
 8000722:	2200      	movs	r2, #0
 8000724:	601a      	str	r2, [r3, #0]
    gameover = 0;
 8000726:	4b26      	ldr	r3, [pc, #152]	; (80007c0 <game_init+0xbc>)
 8000728:	2200      	movs	r2, #0
 800072a:	601a      	str	r2, [r3, #0]
    rx = 95;
 800072c:	4b25      	ldr	r3, [pc, #148]	; (80007c4 <game_init+0xc0>)
 800072e:	225f      	movs	r2, #95	; 0x5f
 8000730:	601a      	str	r2, [r3, #0]
    ry = 0;
 8000732:	4b25      	ldr	r3, [pc, #148]	; (80007c8 <game_init+0xc4>)
 8000734:	2200      	movs	r2, #0
 8000736:	601a      	str	r2, [r3, #0]
    rx2 = 95;
 8000738:	4b24      	ldr	r3, [pc, #144]	; (80007cc <game_init+0xc8>)
 800073a:	225f      	movs	r2, #95	; 0x5f
 800073c:	601a      	str	r2, [r3, #0]
    ry2 = 0;
 800073e:	4b24      	ldr	r3, [pc, #144]	; (80007d0 <game_init+0xcc>)
 8000740:	2200      	movs	r2, #0
 8000742:	601a      	str	r2, [r3, #0]
    rx3 = 95;
 8000744:	4b23      	ldr	r3, [pc, #140]	; (80007d4 <game_init+0xd0>)
 8000746:	225f      	movs	r2, #95	; 0x5f
 8000748:	601a      	str	r2, [r3, #0]
    ry3 = 0;
 800074a:	4b23      	ldr	r3, [pc, #140]	; (80007d8 <game_init+0xd4>)
 800074c:	2200      	movs	r2, #0
 800074e:	601a      	str	r2, [r3, #0]
    score = 0;
 8000750:	4b22      	ldr	r3, [pc, #136]	; (80007dc <game_init+0xd8>)
 8000752:	2200      	movs	r2, #0
 8000754:	601a      	str	r2, [r3, #0]

    flying_saucer_bullet_speed = 3;
 8000756:	4b22      	ldr	r3, [pc, #136]	; (80007e0 <game_init+0xdc>)
 8000758:	2203      	movs	r2, #3
 800075a:	601a      	str	r2, [r3, #0]
    flying_saucer_move_step = 1;
 800075c:	4b21      	ldr	r3, [pc, #132]	; (80007e4 <game_init+0xe0>)
 800075e:	2201      	movs	r2, #1
 8000760:	601a      	str	r2, [r3, #0]
    flying_saucer_radius = 12;
 8000762:	4b21      	ldr	r3, [pc, #132]	; (80007e8 <game_init+0xe4>)
 8000764:	220c      	movs	r2, #12
 8000766:	601a      	str	r2, [r3, #0]

    rx4 = 95;
 8000768:	4b20      	ldr	r3, [pc, #128]	; (80007ec <game_init+0xe8>)
 800076a:	225f      	movs	r2, #95	; 0x5f
 800076c:	601a      	str	r2, [r3, #0]
    ry4 = 0;
 800076e:	4b20      	ldr	r3, [pc, #128]	; (80007f0 <game_init+0xec>)
 8000770:	2200      	movs	r2, #0
 8000772:	601a      	str	r2, [r3, #0]
    life_count = 5;
 8000774:	4b1f      	ldr	r3, [pc, #124]	; (80007f4 <game_init+0xf0>)
 8000776:	2205      	movs	r2, #5
 8000778:	601a      	str	r2, [r3, #0]
    poc = 0;
 800077a:	4b1f      	ldr	r3, [pc, #124]	; (80007f8 <game_init+0xf4>)
 800077c:	2200      	movs	r2, #0
 800077e:	601a      	str	r2, [r3, #0]
    flying_saucer_bullet_size_level = 0;
 8000780:	4b1e      	ldr	r3, [pc, #120]	; (80007fc <game_init+0xf8>)
 8000782:	2200      	movs	r2, #0
 8000784:	601a      	str	r2, [r3, #0]
    level = 1;
 8000786:	4b1e      	ldr	r3, [pc, #120]	; (8000800 <game_init+0xfc>)
 8000788:	2201      	movs	r2, #1
 800078a:	601a      	str	r2, [r3, #0]
    game_begin_time = 0;
 800078c:	4b1d      	ldr	r3, [pc, #116]	; (8000804 <game_init+0x100>)
 800078e:	2200      	movs	r2, #0
 8000790:	601a      	str	r2, [r3, #0]
    flying_saucer_bullet_occur_time = 0;
 8000792:	4b1d      	ldr	r3, [pc, #116]	; (8000808 <game_init+0x104>)
 8000794:	2200      	movs	r2, #0
 8000796:	601a      	str	r2, [r3, #0]
    game_total_time = 0;
 8000798:	4b1c      	ldr	r3, [pc, #112]	; (800080c <game_init+0x108>)
 800079a:	2200      	movs	r2, #0
 800079c:	601a      	str	r2, [r3, #0]
    level_time = 0;
 800079e:	4b1c      	ldr	r3, [pc, #112]	; (8000810 <game_init+0x10c>)
 80007a0:	2200      	movs	r2, #0
 80007a2:	601a      	str	r2, [r3, #0]
}
 80007a4:	bf00      	nop
 80007a6:	46bd      	mov	sp, r7
 80007a8:	bc80      	pop	{r7}
 80007aa:	4770      	bx	lr
 80007ac:	200000cc 	.word	0x200000cc
 80007b0:	200000d0 	.word	0x200000d0
 80007b4:	200000d4 	.word	0x200000d4
 80007b8:	20000000 	.word	0x20000000
 80007bc:	200000d8 	.word	0x200000d8
 80007c0:	200000dc 	.word	0x200000dc
 80007c4:	20000004 	.word	0x20000004
 80007c8:	200000e0 	.word	0x200000e0
 80007cc:	20000008 	.word	0x20000008
 80007d0:	200000e4 	.word	0x200000e4
 80007d4:	2000000c 	.word	0x2000000c
 80007d8:	200000e8 	.word	0x200000e8
 80007dc:	200000ec 	.word	0x200000ec
 80007e0:	20000010 	.word	0x20000010
 80007e4:	20000014 	.word	0x20000014
 80007e8:	20000018 	.word	0x20000018
 80007ec:	2000001c 	.word	0x2000001c
 80007f0:	200000f0 	.word	0x200000f0
 80007f4:	20000020 	.word	0x20000020
 80007f8:	200000f4 	.word	0x200000f4
 80007fc:	200000f8 	.word	0x200000f8
 8000800:	20000024 	.word	0x20000024
 8000804:	200000fc 	.word	0x200000fc
 8000808:	20000100 	.word	0x20000100
 800080c:	20000104 	.word	0x20000104
 8000810:	20000108 	.word	0x20000108

08000814 <get_key_status>:

int get_key_status()
{
 8000814:	b580      	push	{r7, lr}
 8000816:	af00      	add	r7, sp, #0
    if (KEY_Up == 0)
 8000818:	f44f 5180 	mov.w	r1, #4096	; 0x1000
 800081c:	480f      	ldr	r0, [pc, #60]	; (800085c <get_key_status+0x48>)
 800081e:	f001 fed7 	bl	80025d0 <HAL_GPIO_ReadPin>
 8000822:	4603      	mov	r3, r0
 8000824:	2b00      	cmp	r3, #0
 8000826:	d101      	bne.n	800082c <get_key_status+0x18>
        return SHOOT_KEY;
 8000828:	2301      	movs	r3, #1
 800082a:	e014      	b.n	8000856 <get_key_status+0x42>
    if (KEY_Down == 0)
 800082c:	f44f 5100 	mov.w	r1, #8192	; 0x2000
 8000830:	480a      	ldr	r0, [pc, #40]	; (800085c <get_key_status+0x48>)
 8000832:	f001 fecd 	bl	80025d0 <HAL_GPIO_ReadPin>
 8000836:	4603      	mov	r3, r0
 8000838:	2b00      	cmp	r3, #0
 800083a:	d101      	bne.n	8000840 <get_key_status+0x2c>
        return UP_KEY;
 800083c:	2302      	movs	r3, #2
 800083e:	e00a      	b.n	8000856 <get_key_status+0x42>
    if (KEY_Confirm == 0)
 8000840:	f44f 4180 	mov.w	r1, #16384	; 0x4000
 8000844:	4805      	ldr	r0, [pc, #20]	; (800085c <get_key_status+0x48>)
 8000846:	f001 fec3 	bl	80025d0 <HAL_GPIO_ReadPin>
 800084a:	4603      	mov	r3, r0
 800084c:	2b00      	cmp	r3, #0
 800084e:	d101      	bne.n	8000854 <get_key_status+0x40>
        return DOWN_KEY;
 8000850:	2303      	movs	r3, #3
 8000852:	e000      	b.n	8000856 <get_key_status+0x42>
    return 0;
 8000854:	2300      	movs	r3, #0
}
 8000856:	4618      	mov	r0, r3
 8000858:	bd80      	pop	{r7, pc}
 800085a:	bf00      	nop
 800085c:	40010c00 	.word	0x40010c00

08000860 <star_draw>:

void star_draw()
{
 8000860:	b580      	push	{r7, lr}
 8000862:	af00      	add	r7, sp, #0
    OLED_DrawPoint(50, 30);
 8000864:	211e      	movs	r1, #30
 8000866:	2032      	movs	r0, #50	; 0x32
 8000868:	f001 fb50 	bl	8001f0c <OLED_DrawPoint>
    OLED_DrawPoint(30, 17);
 800086c:	2111      	movs	r1, #17
 800086e:	201e      	movs	r0, #30
 8000870:	f001 fb4c 	bl	8001f0c <OLED_DrawPoint>
    OLED_DrawPoint(60, 18);
 8000874:	2112      	movs	r1, #18
 8000876:	203c      	movs	r0, #60	; 0x3c
 8000878:	f001 fb48 	bl	8001f0c <OLED_DrawPoint>
    OLED_DrawPoint(55, 16);
 800087c:	2110      	movs	r1, #16
 800087e:	2037      	movs	r0, #55	; 0x37
 8000880:	f001 fb44 	bl	8001f0c <OLED_DrawPoint>
    OLED_DrawPoint(25, 43);
 8000884:	212b      	movs	r1, #43	; 0x2b
 8000886:	2019      	movs	r0, #25
 8000888:	f001 fb40 	bl	8001f0c <OLED_DrawPoint>
    OLED_DrawPoint(100, 43);
 800088c:	212b      	movs	r1, #43	; 0x2b
 800088e:	2064      	movs	r0, #100	; 0x64
 8000890:	f001 fb3c 	bl	8001f0c <OLED_DrawPoint>
    OLED_DrawPoint(117, 52);
 8000894:	2134      	movs	r1, #52	; 0x34
 8000896:	2075      	movs	r0, #117	; 0x75
 8000898:	f001 fb38 	bl	8001f0c <OLED_DrawPoint>
    OLED_DrawPoint(14, 49);
 800089c:	2131      	movs	r1, #49	; 0x31
 800089e:	200e      	movs	r0, #14
 80008a0:	f001 fb34 	bl	8001f0c <OLED_DrawPoint>
    OLED_DrawPoint(24, 24);
 80008a4:	2118      	movs	r1, #24
 80008a6:	2018      	movs	r0, #24
 80008a8:	f001 fb30 	bl	8001f0c <OLED_DrawPoint>
    OLED_DrawPoint(78, 36);
 80008ac:	2124      	movs	r1, #36	; 0x24
 80008ae:	204e      	movs	r0, #78	; 0x4e
 80008b0:	f001 fb2c 	bl	8001f0c <OLED_DrawPoint>
    OLED_DrawPoint(80, 57);
 80008b4:	2139      	movs	r1, #57	; 0x39
 80008b6:	2050      	movs	r0, #80	; 0x50
 80008b8:	f001 fb28 	bl	8001f0c <OLED_DrawPoint>
    OLED_DrawPoint(107, 11);
 80008bc:	210b      	movs	r1, #11
 80008be:	206b      	movs	r0, #107	; 0x6b
 80008c0:	f001 fb24 	bl	8001f0c <OLED_DrawPoint>
    OLED_DrawPoint(150, 11);
 80008c4:	210b      	movs	r1, #11
 80008c6:	2096      	movs	r0, #150	; 0x96
 80008c8:	f001 fb20 	bl	8001f0c <OLED_DrawPoint>
    OLED_DrawPoint(5, 5);
 80008cc:	2105      	movs	r1, #5
 80008ce:	2005      	movs	r0, #5
 80008d0:	f001 fb1c 	bl	8001f0c <OLED_DrawPoint>
    OLED_DrawPoint(8, 7);
 80008d4:	2107      	movs	r1, #7
 80008d6:	2008      	movs	r0, #8
 80008d8:	f001 fb18 	bl	8001f0c <OLED_DrawPoint>
    OLED_DrawPoint(70, 12);
 80008dc:	210c      	movs	r1, #12
 80008de:	2046      	movs	r0, #70	; 0x46
 80008e0:	f001 fb14 	bl	8001f0c <OLED_DrawPoint>
    OLED_DrawPoint(10, 56);
 80008e4:	2138      	movs	r1, #56	; 0x38
 80008e6:	200a      	movs	r0, #10
 80008e8:	f001 fb10 	bl	8001f0c <OLED_DrawPoint>
    OLED_DrawPoint(70, 25);
 80008ec:	2119      	movs	r1, #25
 80008ee:	2046      	movs	r0, #70	; 0x46
 80008f0:	f001 fb0c 	bl	8001f0c <OLED_DrawPoint>
}
 80008f4:	bf00      	nop
 80008f6:	bd80      	pop	{r7, pc}

080008f8 <star_war_play>:

void star_war_play()
{
 80008f8:	b580      	push	{r7, lr}
 80008fa:	b08a      	sub	sp, #40	; 0x28
 80008fc:	af02      	add	r7, sp, #8
    int current_spaceship_position_y = 0; // 飞船当前位置（横坐标）
 80008fe:	2300      	movs	r3, #0
 8000900:	61bb      	str	r3, [r7, #24]
    unsigned long start_tt = 0;           // 游戏开始时间
 8000902:	2300      	movs	r3, #0
 8000904:	61fb      	str	r3, [r7, #28]
    unsigned long dt = 0;                 // 时间间隔
 8000906:	2300      	movs	r3, #0
 8000908:	617b      	str	r3, [r7, #20]
    unsigned long start_time;             // 开始时间
    char tmp[15] = {0};
 800090a:	1d3b      	adds	r3, r7, #4
 800090c:	2200      	movs	r2, #0
 800090e:	601a      	str	r2, [r3, #0]
 8000910:	605a      	str	r2, [r3, #4]
 8000912:	609a      	str	r2, [r3, #8]
 8000914:	f8c3 200b 	str.w	r2, [r3, #11]
    while (1)
    {
        dt = HAL_GetTick() - start_tt;
 8000918:	f001 fb9a 	bl	8002050 <HAL_GetTick>
 800091c:	4602      	mov	r2, r0
 800091e:	69fb      	ldr	r3, [r7, #28]
 8000920:	1ad3      	subs	r3, r2, r3
 8000922:	617b      	str	r3, [r7, #20]

        if (gameover == 0)
 8000924:	4b61      	ldr	r3, [pc, #388]	; (8000aac <star_war_play+0x1b4>)
 8000926:	681b      	ldr	r3, [r3, #0]
 8000928:	2b00      	cmp	r3, #0
 800092a:	d156      	bne.n	80009da <star_war_play+0xe2>
        {
            OLED_NewFrame();
 800092c:	f000 fec0 	bl	80016b0 <OLED_NewFrame>

            star_draw(); // 画背景星星
 8000930:	f7ff ff96 	bl	8000860 <star_draw>

            if (HAL_GPIO_ReadPin(Back_GPIO_Port, Back_Pin) == GPIO_PIN_RESET)
 8000934:	f44f 4100 	mov.w	r1, #32768	; 0x8000
 8000938:	485d      	ldr	r0, [pc, #372]	; (8000ab0 <star_war_play+0x1b8>)
 800093a:	f001 fe49 	bl	80025d0 <HAL_GPIO_ReadPin>
 800093e:	4603      	mov	r3, r0
 8000940:	2b00      	cmp	r3, #0
 8000942:	f000 80ae 	beq.w	8000aa2 <star_war_play+0x1aa>
            {
                return;
            }

            // test
            score = 100;
 8000946:	4b5b      	ldr	r3, [pc, #364]	; (8000ab4 <star_war_play+0x1bc>)
 8000948:	2264      	movs	r2, #100	; 0x64
 800094a:	601a      	str	r2, [r3, #0]
            sprintf(tmp, "%d", score);
 800094c:	4b59      	ldr	r3, [pc, #356]	; (8000ab4 <star_war_play+0x1bc>)
 800094e:	681a      	ldr	r2, [r3, #0]
 8000950:	1d3b      	adds	r3, r7, #4
 8000952:	4959      	ldr	r1, [pc, #356]	; (8000ab8 <star_war_play+0x1c0>)
 8000954:	4618      	mov	r0, r3
 8000956:	f003 fc75 	bl	8004244 <siprintf>
            OLED_PrintString(37, 30, "得分:", &font12x12, OLED_COLOR_NORMAL);
 800095a:	2300      	movs	r3, #0
 800095c:	9300      	str	r3, [sp, #0]
 800095e:	4b57      	ldr	r3, [pc, #348]	; (8000abc <star_war_play+0x1c4>)
 8000960:	4a57      	ldr	r2, [pc, #348]	; (8000ac0 <star_war_play+0x1c8>)
 8000962:	211e      	movs	r1, #30
 8000964:	2025      	movs	r0, #37	; 0x25
 8000966:	f001 fa2b 	bl	8001dc0 <OLED_PrintString>
            OLED_PrintString(45, 30, tmp, &font12x12, OLED_COLOR_NORMAL);
 800096a:	1d3a      	adds	r2, r7, #4
 800096c:	2300      	movs	r3, #0
 800096e:	9300      	str	r3, [sp, #0]
 8000970:	4b52      	ldr	r3, [pc, #328]	; (8000abc <star_war_play+0x1c4>)
 8000972:	211e      	movs	r1, #30
 8000974:	202d      	movs	r0, #45	; 0x2d
 8000976:	f001 fa23 	bl	8001dc0 <OLED_PrintString>

            OLED_PrintString(37, 40, "等级:", &font12x12, OLED_COLOR_NORMAL);
 800097a:	2300      	movs	r3, #0
 800097c:	9300      	str	r3, [sp, #0]
 800097e:	4b4f      	ldr	r3, [pc, #316]	; (8000abc <star_war_play+0x1c4>)
 8000980:	4a50      	ldr	r2, [pc, #320]	; (8000ac4 <star_war_play+0x1cc>)
 8000982:	2128      	movs	r1, #40	; 0x28
 8000984:	2025      	movs	r0, #37	; 0x25
 8000986:	f001 fa1b 	bl	8001dc0 <OLED_PrintString>
            sprintf(tmp, "%d", level);
 800098a:	4b4f      	ldr	r3, [pc, #316]	; (8000ac8 <star_war_play+0x1d0>)
 800098c:	681a      	ldr	r2, [r3, #0]
 800098e:	1d3b      	adds	r3, r7, #4
 8000990:	4949      	ldr	r1, [pc, #292]	; (8000ab8 <star_war_play+0x1c0>)
 8000992:	4618      	mov	r0, r3
 8000994:	f003 fc56 	bl	8004244 <siprintf>
            OLED_PrintString(45, 40, tmp, &font12x12, OLED_COLOR_NORMAL);
 8000998:	1d3a      	adds	r2, r7, #4
 800099a:	2300      	movs	r3, #0
 800099c:	9300      	str	r3, [sp, #0]
 800099e:	4b47      	ldr	r3, [pc, #284]	; (8000abc <star_war_play+0x1c4>)
 80009a0:	2128      	movs	r1, #40	; 0x28
 80009a2:	202d      	movs	r0, #45	; 0x2d
 80009a4:	f001 fa0c 	bl	8001dc0 <OLED_PrintString>

            OLED_PrintString(37, 50, "时间(s):", &font12x12, OLED_COLOR_NORMAL);
 80009a8:	2300      	movs	r3, #0
 80009aa:	9300      	str	r3, [sp, #0]
 80009ac:	4b43      	ldr	r3, [pc, #268]	; (8000abc <star_war_play+0x1c4>)
 80009ae:	4a47      	ldr	r2, [pc, #284]	; (8000acc <star_war_play+0x1d4>)
 80009b0:	2132      	movs	r1, #50	; 0x32
 80009b2:	2025      	movs	r0, #37	; 0x25
 80009b4:	f001 fa04 	bl	8001dc0 <OLED_PrintString>
            sprintf(tmp, "%d", score);
 80009b8:	4b3e      	ldr	r3, [pc, #248]	; (8000ab4 <star_war_play+0x1bc>)
 80009ba:	681a      	ldr	r2, [r3, #0]
 80009bc:	1d3b      	adds	r3, r7, #4
 80009be:	493e      	ldr	r1, [pc, #248]	; (8000ab8 <star_war_play+0x1c0>)
 80009c0:	4618      	mov	r0, r3
 80009c2:	f003 fc3f 	bl	8004244 <siprintf>
            OLED_PrintString(45, 50, tmp, &font12x12, OLED_COLOR_NORMAL);
 80009c6:	1d3a      	adds	r2, r7, #4
 80009c8:	2300      	movs	r3, #0
 80009ca:	9300      	str	r3, [sp, #0]
 80009cc:	4b3b      	ldr	r3, [pc, #236]	; (8000abc <star_war_play+0x1c4>)
 80009ce:	2132      	movs	r1, #50	; 0x32
 80009d0:	202d      	movs	r0, #45	; 0x2d
 80009d2:	f001 f9f5 	bl	8001dc0 <OLED_PrintString>

            OLED_ShowFrame();
 80009d6:	f000 fe77 	bl	80016c8 <OLED_ShowFrame>
        }

        if (gameover == 1)
 80009da:	4b34      	ldr	r3, [pc, #208]	; (8000aac <star_war_play+0x1b4>)
 80009dc:	681b      	ldr	r3, [r3, #0]
 80009de:	2b01      	cmp	r3, #1
 80009e0:	d19a      	bne.n	8000918 <star_war_play+0x20>
        {
            OLED_NewFrame();
 80009e2:	f000 fe65 	bl	80016b0 <OLED_NewFrame>

            OLED_PrintString(7, 30, "得分:", &font12x12, OLED_COLOR_NORMAL);
 80009e6:	2300      	movs	r3, #0
 80009e8:	9300      	str	r3, [sp, #0]
 80009ea:	4b34      	ldr	r3, [pc, #208]	; (8000abc <star_war_play+0x1c4>)
 80009ec:	4a34      	ldr	r2, [pc, #208]	; (8000ac0 <star_war_play+0x1c8>)
 80009ee:	211e      	movs	r1, #30
 80009f0:	2007      	movs	r0, #7
 80009f2:	f001 f9e5 	bl	8001dc0 <OLED_PrintString>
            sprintf(tmp, "%d", score);
 80009f6:	4b2f      	ldr	r3, [pc, #188]	; (8000ab4 <star_war_play+0x1bc>)
 80009f8:	681a      	ldr	r2, [r3, #0]
 80009fa:	1d3b      	adds	r3, r7, #4
 80009fc:	492e      	ldr	r1, [pc, #184]	; (8000ab8 <star_war_play+0x1c0>)
 80009fe:	4618      	mov	r0, r3
 8000a00:	f003 fc20 	bl	8004244 <siprintf>
            OLED_PrintString(72, 30, tmp, &font12x12, OLED_COLOR_NORMAL);
 8000a04:	1d3a      	adds	r2, r7, #4
 8000a06:	2300      	movs	r3, #0
 8000a08:	9300      	str	r3, [sp, #0]
 8000a0a:	4b2c      	ldr	r3, [pc, #176]	; (8000abc <star_war_play+0x1c4>)
 8000a0c:	211e      	movs	r1, #30
 8000a0e:	2048      	movs	r0, #72	; 0x48
 8000a10:	f001 f9d6 	bl	8001dc0 <OLED_PrintString>

            OLED_PrintString(7, 40, "等级:", &font12x12, OLED_COLOR_NORMAL);
 8000a14:	2300      	movs	r3, #0
 8000a16:	9300      	str	r3, [sp, #0]
 8000a18:	4b28      	ldr	r3, [pc, #160]	; (8000abc <star_war_play+0x1c4>)
 8000a1a:	4a2a      	ldr	r2, [pc, #168]	; (8000ac4 <star_war_play+0x1cc>)
 8000a1c:	2128      	movs	r1, #40	; 0x28
 8000a1e:	2007      	movs	r0, #7
 8000a20:	f001 f9ce 	bl	8001dc0 <OLED_PrintString>
            sprintf(tmp, "%d", score);
 8000a24:	4b23      	ldr	r3, [pc, #140]	; (8000ab4 <star_war_play+0x1bc>)
 8000a26:	681a      	ldr	r2, [r3, #0]
 8000a28:	1d3b      	adds	r3, r7, #4
 8000a2a:	4923      	ldr	r1, [pc, #140]	; (8000ab8 <star_war_play+0x1c0>)
 8000a2c:	4618      	mov	r0, r3
 8000a2e:	f003 fc09 	bl	8004244 <siprintf>
            OLED_PrintString(72, 40, tmp, &font12x12, OLED_COLOR_NORMAL);
 8000a32:	1d3a      	adds	r2, r7, #4
 8000a34:	2300      	movs	r3, #0
 8000a36:	9300      	str	r3, [sp, #0]
 8000a38:	4b20      	ldr	r3, [pc, #128]	; (8000abc <star_war_play+0x1c4>)
 8000a3a:	2128      	movs	r1, #40	; 0x28
 8000a3c:	2048      	movs	r0, #72	; 0x48
 8000a3e:	f001 f9bf 	bl	8001dc0 <OLED_PrintString>

            OLED_PrintString(7, 50, "时间(s):", &font12x12, OLED_COLOR_NORMAL);
 8000a42:	2300      	movs	r3, #0
 8000a44:	9300      	str	r3, [sp, #0]
 8000a46:	4b1d      	ldr	r3, [pc, #116]	; (8000abc <star_war_play+0x1c4>)
 8000a48:	4a20      	ldr	r2, [pc, #128]	; (8000acc <star_war_play+0x1d4>)
 8000a4a:	2132      	movs	r1, #50	; 0x32
 8000a4c:	2007      	movs	r0, #7
 8000a4e:	f001 f9b7 	bl	8001dc0 <OLED_PrintString>
            sprintf(tmp, "%d", score);
 8000a52:	4b18      	ldr	r3, [pc, #96]	; (8000ab4 <star_war_play+0x1bc>)
 8000a54:	681a      	ldr	r2, [r3, #0]
 8000a56:	1d3b      	adds	r3, r7, #4
 8000a58:	4917      	ldr	r1, [pc, #92]	; (8000ab8 <star_war_play+0x1c0>)
 8000a5a:	4618      	mov	r0, r3
 8000a5c:	f003 fbf2 	bl	8004244 <siprintf>
            OLED_PrintString(72, 50, tmp, &font12x12, OLED_COLOR_NORMAL);
 8000a60:	1d3a      	adds	r2, r7, #4
 8000a62:	2300      	movs	r3, #0
 8000a64:	9300      	str	r3, [sp, #0]
 8000a66:	4b15      	ldr	r3, [pc, #84]	; (8000abc <star_war_play+0x1c4>)
 8000a68:	2132      	movs	r1, #50	; 0x32
 8000a6a:	2048      	movs	r0, #72	; 0x48
 8000a6c:	f001 f9a8 	bl	8001dc0 <OLED_PrintString>

            OLED_ShowFrame();
 8000a70:	f000 fe2a 	bl	80016c8 <OLED_ShowFrame>

            if (life_count == 0)
 8000a74:	4b16      	ldr	r3, [pc, #88]	; (8000ad0 <star_war_play+0x1d8>)
 8000a76:	681b      	ldr	r3, [r3, #0]
 8000a78:	2b00      	cmp	r3, #0
 8000a7a:	d106      	bne.n	8000a8a <star_war_play+0x192>
            {
                life_count = 5;
 8000a7c:	4b14      	ldr	r3, [pc, #80]	; (8000ad0 <star_war_play+0x1d8>)
 8000a7e:	2205      	movs	r2, #5
 8000a80:	601a      	str	r2, [r3, #0]
                HAL_Delay(1000);
 8000a82:	f44f 707a 	mov.w	r0, #1000	; 0x3e8
 8000a86:	f001 faed 	bl	8002064 <HAL_Delay>
            }

            if (get_key_status() == SHOOT_KEY)
 8000a8a:	f7ff fec3 	bl	8000814 <get_key_status>
 8000a8e:	4603      	mov	r3, r0
 8000a90:	2b01      	cmp	r3, #1
 8000a92:	f47f af41 	bne.w	8000918 <star_war_play+0x20>
            {
                start_tt = HAL_GetTick();
 8000a96:	f001 fadb 	bl	8002050 <HAL_GetTick>
 8000a9a:	61f8      	str	r0, [r7, #28]
                game_init(); // 初始化
 8000a9c:	f7ff fe32 	bl	8000704 <game_init>
        dt = HAL_GetTick() - start_tt;
 8000aa0:	e73a      	b.n	8000918 <star_war_play+0x20>
                return;
 8000aa2:	bf00      	nop
            }
        }
    }
    start_tt = HAL_GetTick();
}
 8000aa4:	3720      	adds	r7, #32
 8000aa6:	46bd      	mov	sp, r7
 8000aa8:	bd80      	pop	{r7, pc}
 8000aaa:	bf00      	nop
 8000aac:	200000dc 	.word	0x200000dc
 8000ab0:	40010c00 	.word	0x40010c00
 8000ab4:	200000ec 	.word	0x200000ec
 8000ab8:	08004ab4 	.word	0x08004ab4
 8000abc:	08005efc 	.word	0x08005efc
 8000ac0:	08004ab8 	.word	0x08004ab8
 8000ac4:	08004ac0 	.word	0x08004ac0
 8000ac8:	20000024 	.word	0x20000024
 8000acc:	08004ac8 	.word	0x08004ac8
 8000ad0:	20000020 	.word	0x20000020

08000ad4 <info_message>:
 8000ad4:	b580      	push	{r7, lr}
 8000ad6:	b082      	sub	sp, #8
 8000ad8:	af02      	add	r7, sp, #8
 8000ada:	f000 fde9 	bl	80016b0 <OLED_NewFrame>
 8000ade:	2300      	movs	r3, #0
 8000ae0:	9300      	str	r3, [sp, #0]
 8000ae2:	4b0e      	ldr	r3, [pc, #56]	; (8000b1c <info_message+0x48>)
 8000ae4:	4a0e      	ldr	r2, [pc, #56]	; (8000b20 <info_message+0x4c>)
 8000ae6:	2108      	movs	r1, #8
 8000ae8:	2000      	movs	r0, #0
 8000aea:	f001 f969 	bl	8001dc0 <OLED_PrintString>
 8000aee:	2300      	movs	r3, #0
 8000af0:	9300      	str	r3, [sp, #0]
 8000af2:	4b0a      	ldr	r3, [pc, #40]	; (8000b1c <info_message+0x48>)
 8000af4:	4a0b      	ldr	r2, [pc, #44]	; (8000b24 <info_message+0x50>)
 8000af6:	212b      	movs	r1, #43	; 0x2b
 8000af8:	2000      	movs	r0, #0
 8000afa:	f001 f961 	bl	8001dc0 <OLED_PrintString>
 8000afe:	f000 fde3 	bl	80016c8 <OLED_ShowFrame>
 8000b02:	bf00      	nop
 8000b04:	f44f 4100 	mov.w	r1, #32768	; 0x8000
 8000b08:	4807      	ldr	r0, [pc, #28]	; (8000b28 <info_message+0x54>)
 8000b0a:	f001 fd61 	bl	80025d0 <HAL_GPIO_ReadPin>
 8000b0e:	4603      	mov	r3, r0
 8000b10:	2b00      	cmp	r3, #0
 8000b12:	d1f7      	bne.n	8000b04 <info_message+0x30>
 8000b14:	bf00      	nop
 8000b16:	46bd      	mov	sp, r7
 8000b18:	bd80      	pop	{r7, pc}
 8000b1a:	bf00      	nop
 8000b1c:	08005d9c 	.word	0x08005d9c
 8000b20:	08004ad4 	.word	0x08004ad4
 8000b24:	08004ae8 	.word	0x08004ae8
 8000b28:	40010c00 	.word	0x40010c00

08000b2c <menu2_games>:
 8000b2c:	b580      	push	{r7, lr}
 8000b2e:	b084      	sub	sp, #16
 8000b30:	af02      	add	r7, sp, #8
 8000b32:	2300      	movs	r3, #0
 8000b34:	607b      	str	r3, [r7, #4]
 8000b36:	2301      	movs	r3, #1
 8000b38:	70fb      	strb	r3, [r7, #3]
 8000b3a:	f000 fdb9 	bl	80016b0 <OLED_NewFrame>
 8000b3e:	2300      	movs	r3, #0
 8000b40:	4a5f      	ldr	r2, [pc, #380]	; (8000cc0 <menu2_games+0x194>)
 8000b42:	2100      	movs	r1, #0
 8000b44:	2000      	movs	r0, #0
 8000b46:	f001 f8c5 	bl	8001cd4 <OLED_DrawImage>
 8000b4a:	2300      	movs	r3, #0
 8000b4c:	9300      	str	r3, [sp, #0]
 8000b4e:	4b5d      	ldr	r3, [pc, #372]	; (8000cc4 <menu2_games+0x198>)
 8000b50:	4a5d      	ldr	r2, [pc, #372]	; (8000cc8 <menu2_games+0x19c>)
 8000b52:	2100      	movs	r1, #0
 8000b54:	200a      	movs	r0, #10
 8000b56:	f001 f933 	bl	8001dc0 <OLED_PrintString>
 8000b5a:	2300      	movs	r3, #0
 8000b5c:	9300      	str	r3, [sp, #0]
 8000b5e:	4b59      	ldr	r3, [pc, #356]	; (8000cc4 <menu2_games+0x198>)
 8000b60:	4a5a      	ldr	r2, [pc, #360]	; (8000ccc <menu2_games+0x1a0>)
 8000b62:	2110      	movs	r1, #16
 8000b64:	200a      	movs	r0, #10
 8000b66:	f001 f92b 	bl	8001dc0 <OLED_PrintString>
 8000b6a:	f000 fdad 	bl	80016c8 <OLED_ShowFrame>
 8000b6e:	f000 fcad 	bl	80014cc <Key_GetNum>
 8000b72:	4603      	mov	r3, r0
 8000b74:	b2da      	uxtb	r2, r3
 8000b76:	4b56      	ldr	r3, [pc, #344]	; (8000cd0 <menu2_games+0x1a4>)
 8000b78:	701a      	strb	r2, [r3, #0]
 8000b7a:	4b55      	ldr	r3, [pc, #340]	; (8000cd0 <menu2_games+0x1a4>)
 8000b7c:	781b      	ldrb	r3, [r3, #0]
 8000b7e:	2b01      	cmp	r3, #1
 8000b80:	d107      	bne.n	8000b92 <menu2_games+0x66>
 8000b82:	78fb      	ldrb	r3, [r7, #3]
 8000b84:	3b01      	subs	r3, #1
 8000b86:	70fb      	strb	r3, [r7, #3]
 8000b88:	78fb      	ldrb	r3, [r7, #3]
 8000b8a:	2b00      	cmp	r3, #0
 8000b8c:	d101      	bne.n	8000b92 <menu2_games+0x66>
 8000b8e:	2302      	movs	r3, #2
 8000b90:	70fb      	strb	r3, [r7, #3]
 8000b92:	4b4f      	ldr	r3, [pc, #316]	; (8000cd0 <menu2_games+0x1a4>)
 8000b94:	781b      	ldrb	r3, [r3, #0]
 8000b96:	2b02      	cmp	r3, #2
 8000b98:	d107      	bne.n	8000baa <menu2_games+0x7e>
 8000b9a:	78fb      	ldrb	r3, [r7, #3]
 8000b9c:	3301      	adds	r3, #1
 8000b9e:	70fb      	strb	r3, [r7, #3]
 8000ba0:	78fb      	ldrb	r3, [r7, #3]
 8000ba2:	2b03      	cmp	r3, #3
 8000ba4:	d101      	bne.n	8000baa <menu2_games+0x7e>
 8000ba6:	2301      	movs	r3, #1
 8000ba8:	70fb      	strb	r3, [r7, #3]
 8000baa:	4b49      	ldr	r3, [pc, #292]	; (8000cd0 <menu2_games+0x1a4>)
 8000bac:	781b      	ldrb	r3, [r3, #0]
 8000bae:	2b03      	cmp	r3, #3
 8000bb0:	d105      	bne.n	8000bbe <menu2_games+0x92>
 8000bb2:	f000 fd7d 	bl	80016b0 <OLED_NewFrame>
 8000bb6:	f000 fd87 	bl	80016c8 <OLED_ShowFrame>
 8000bba:	78fb      	ldrb	r3, [r7, #3]
 8000bbc:	607b      	str	r3, [r7, #4]
 8000bbe:	4b44      	ldr	r3, [pc, #272]	; (8000cd0 <menu2_games+0x1a4>)
 8000bc0:	781b      	ldrb	r3, [r3, #0]
 8000bc2:	2b04      	cmp	r3, #4
 8000bc4:	d101      	bne.n	8000bca <menu2_games+0x9e>
 8000bc6:	2300      	movs	r3, #0
 8000bc8:	e075      	b.n	8000cb6 <menu2_games+0x18a>
 8000bca:	687b      	ldr	r3, [r7, #4]
 8000bcc:	2b01      	cmp	r3, #1
 8000bce:	d10a      	bne.n	8000be6 <menu2_games+0xba>
 8000bd0:	f7ff fabc 	bl	800014c <show_line>
 8000bd4:	f7ff fbdc 	bl	8000390 <dino_play>
 8000bd8:	2300      	movs	r3, #0
 8000bda:	607b      	str	r3, [r7, #4]
 8000bdc:	f44f 7096 	mov.w	r0, #300	; 0x12c
 8000be0:	f001 fa40 	bl	8002064 <HAL_Delay>
 8000be4:	e00a      	b.n	8000bfc <menu2_games+0xd0>
 8000be6:	687b      	ldr	r3, [r7, #4]
 8000be8:	2b02      	cmp	r3, #2
 8000bea:	d107      	bne.n	8000bfc <menu2_games+0xd0>
 8000bec:	f7ff fe84 	bl	80008f8 <star_war_play>
 8000bf0:	2300      	movs	r3, #0
 8000bf2:	607b      	str	r3, [r7, #4]
 8000bf4:	f44f 7096 	mov.w	r0, #300	; 0x12c
 8000bf8:	f001 fa34 	bl	8002064 <HAL_Delay>
 8000bfc:	78fb      	ldrb	r3, [r7, #3]
 8000bfe:	2b03      	cmp	r3, #3
 8000c00:	d03c      	beq.n	8000c7c <menu2_games+0x150>
 8000c02:	2b03      	cmp	r3, #3
 8000c04:	dc55      	bgt.n	8000cb2 <menu2_games+0x186>
 8000c06:	2b01      	cmp	r3, #1
 8000c08:	d002      	beq.n	8000c10 <menu2_games+0xe4>
 8000c0a:	2b02      	cmp	r3, #2
 8000c0c:	d01b      	beq.n	8000c46 <menu2_games+0x11a>
 8000c0e:	e050      	b.n	8000cb2 <menu2_games+0x186>
 8000c10:	f000 fd4e 	bl	80016b0 <OLED_NewFrame>
 8000c14:	2300      	movs	r3, #0
 8000c16:	4a2a      	ldr	r2, [pc, #168]	; (8000cc0 <menu2_games+0x194>)
 8000c18:	2100      	movs	r1, #0
 8000c1a:	2000      	movs	r0, #0
 8000c1c:	f001 f85a 	bl	8001cd4 <OLED_DrawImage>
 8000c20:	2300      	movs	r3, #0
 8000c22:	9300      	str	r3, [sp, #0]
 8000c24:	4b27      	ldr	r3, [pc, #156]	; (8000cc4 <menu2_games+0x198>)
 8000c26:	4a28      	ldr	r2, [pc, #160]	; (8000cc8 <menu2_games+0x19c>)
 8000c28:	2100      	movs	r1, #0
 8000c2a:	200a      	movs	r0, #10
 8000c2c:	f001 f8c8 	bl	8001dc0 <OLED_PrintString>
 8000c30:	2300      	movs	r3, #0
 8000c32:	9300      	str	r3, [sp, #0]
 8000c34:	4b23      	ldr	r3, [pc, #140]	; (8000cc4 <menu2_games+0x198>)
 8000c36:	4a25      	ldr	r2, [pc, #148]	; (8000ccc <menu2_games+0x1a0>)
 8000c38:	2110      	movs	r1, #16
 8000c3a:	200a      	movs	r0, #10
 8000c3c:	f001 f8c0 	bl	8001dc0 <OLED_PrintString>
 8000c40:	f000 fd42 	bl	80016c8 <OLED_ShowFrame>
 8000c44:	e036      	b.n	8000cb4 <menu2_games+0x188>
 8000c46:	f000 fd33 	bl	80016b0 <OLED_NewFrame>
 8000c4a:	2300      	movs	r3, #0
 8000c4c:	4a1c      	ldr	r2, [pc, #112]	; (8000cc0 <menu2_games+0x194>)
 8000c4e:	2110      	movs	r1, #16
 8000c50:	2000      	movs	r0, #0
 8000c52:	f001 f83f 	bl	8001cd4 <OLED_DrawImage>
 8000c56:	2300      	movs	r3, #0
 8000c58:	9300      	str	r3, [sp, #0]
 8000c5a:	4b1a      	ldr	r3, [pc, #104]	; (8000cc4 <menu2_games+0x198>)
 8000c5c:	4a1a      	ldr	r2, [pc, #104]	; (8000cc8 <menu2_games+0x19c>)
 8000c5e:	2100      	movs	r1, #0
 8000c60:	200a      	movs	r0, #10
 8000c62:	f001 f8ad 	bl	8001dc0 <OLED_PrintString>
 8000c66:	2300      	movs	r3, #0
 8000c68:	9300      	str	r3, [sp, #0]
 8000c6a:	4b16      	ldr	r3, [pc, #88]	; (8000cc4 <menu2_games+0x198>)
 8000c6c:	4a17      	ldr	r2, [pc, #92]	; (8000ccc <menu2_games+0x1a0>)
 8000c6e:	2110      	movs	r1, #16
 8000c70:	200a      	movs	r0, #10
 8000c72:	f001 f8a5 	bl	8001dc0 <OLED_PrintString>
 8000c76:	f000 fd27 	bl	80016c8 <OLED_ShowFrame>
 8000c7a:	e01b      	b.n	8000cb4 <menu2_games+0x188>
 8000c7c:	f000 fd18 	bl	80016b0 <OLED_NewFrame>
 8000c80:	2300      	movs	r3, #0
 8000c82:	4a0f      	ldr	r2, [pc, #60]	; (8000cc0 <menu2_games+0x194>)
 8000c84:	2120      	movs	r1, #32
 8000c86:	2000      	movs	r0, #0
 8000c88:	f001 f824 	bl	8001cd4 <OLED_DrawImage>
 8000c8c:	2300      	movs	r3, #0
 8000c8e:	9300      	str	r3, [sp, #0]
 8000c90:	4b0c      	ldr	r3, [pc, #48]	; (8000cc4 <menu2_games+0x198>)
 8000c92:	4a0d      	ldr	r2, [pc, #52]	; (8000cc8 <menu2_games+0x19c>)
 8000c94:	2100      	movs	r1, #0
 8000c96:	200a      	movs	r0, #10
 8000c98:	f001 f892 	bl	8001dc0 <OLED_PrintString>
 8000c9c:	2300      	movs	r3, #0
 8000c9e:	9300      	str	r3, [sp, #0]
 8000ca0:	4b08      	ldr	r3, [pc, #32]	; (8000cc4 <menu2_games+0x198>)
 8000ca2:	4a0a      	ldr	r2, [pc, #40]	; (8000ccc <menu2_games+0x1a0>)
 8000ca4:	2110      	movs	r1, #16
 8000ca6:	200a      	movs	r0, #10
 8000ca8:	f001 f88a 	bl	8001dc0 <OLED_PrintString>
 8000cac:	f000 fd0c 	bl	80016c8 <OLED_ShowFrame>
 8000cb0:	e000      	b.n	8000cb4 <menu2_games+0x188>
 8000cb2:	bf00      	nop
 8000cb4:	e75b      	b.n	8000b6e <menu2_games+0x42>
 8000cb6:	4618      	mov	r0, r3
 8000cb8:	3708      	adds	r7, #8
 8000cba:	46bd      	mov	sp, r7
 8000cbc:	bd80      	pop	{r7, pc}
 8000cbe:	bf00      	nop
 8000cc0:	08005f20 	.word	0x08005f20
 8000cc4:	08005d9c 	.word	0x08005d9c
 8000cc8:	08004af4 	.word	0x08004af4
 8000ccc:	08004b04 	.word	0x08004b04
 8000cd0:	2000010c 	.word	0x2000010c

08000cd4 <menu1>:
 8000cd4:	b580      	push	{r7, lr}
 8000cd6:	b084      	sub	sp, #16
 8000cd8:	af02      	add	r7, sp, #8
 8000cda:	2301      	movs	r3, #1
 8000cdc:	71fb      	strb	r3, [r7, #7]
 8000cde:	f000 fce7 	bl	80016b0 <OLED_NewFrame>
 8000ce2:	2300      	movs	r3, #0
 8000ce4:	4aa5      	ldr	r2, [pc, #660]	; (8000f7c <menu1+0x2a8>)
 8000ce6:	2100      	movs	r1, #0
 8000ce8:	2000      	movs	r0, #0
 8000cea:	f000 fff3 	bl	8001cd4 <OLED_DrawImage>
 8000cee:	2300      	movs	r3, #0
 8000cf0:	9300      	str	r3, [sp, #0]
 8000cf2:	4ba3      	ldr	r3, [pc, #652]	; (8000f80 <menu1+0x2ac>)
 8000cf4:	4aa3      	ldr	r2, [pc, #652]	; (8000f84 <menu1+0x2b0>)
 8000cf6:	2100      	movs	r1, #0
 8000cf8:	200a      	movs	r0, #10
 8000cfa:	f001 f861 	bl	8001dc0 <OLED_PrintString>
 8000cfe:	2300      	movs	r3, #0
 8000d00:	9300      	str	r3, [sp, #0]
 8000d02:	4b9f      	ldr	r3, [pc, #636]	; (8000f80 <menu1+0x2ac>)
 8000d04:	4aa0      	ldr	r2, [pc, #640]	; (8000f88 <menu1+0x2b4>)
 8000d06:	2110      	movs	r1, #16
 8000d08:	200a      	movs	r0, #10
 8000d0a:	f001 f859 	bl	8001dc0 <OLED_PrintString>
 8000d0e:	2300      	movs	r3, #0
 8000d10:	9300      	str	r3, [sp, #0]
 8000d12:	4b9b      	ldr	r3, [pc, #620]	; (8000f80 <menu1+0x2ac>)
 8000d14:	4a9d      	ldr	r2, [pc, #628]	; (8000f8c <menu1+0x2b8>)
 8000d16:	2120      	movs	r1, #32
 8000d18:	200a      	movs	r0, #10
 8000d1a:	f001 f851 	bl	8001dc0 <OLED_PrintString>
 8000d1e:	2300      	movs	r3, #0
 8000d20:	9300      	str	r3, [sp, #0]
 8000d22:	4b97      	ldr	r3, [pc, #604]	; (8000f80 <menu1+0x2ac>)
 8000d24:	4a9a      	ldr	r2, [pc, #616]	; (8000f90 <menu1+0x2bc>)
 8000d26:	2130      	movs	r1, #48	; 0x30
 8000d28:	200a      	movs	r0, #10
 8000d2a:	f001 f849 	bl	8001dc0 <OLED_PrintString>
 8000d2e:	f000 fccb 	bl	80016c8 <OLED_ShowFrame>
 8000d32:	f000 fbcb 	bl	80014cc <Key_GetNum>
 8000d36:	4603      	mov	r3, r0
 8000d38:	b2da      	uxtb	r2, r3
 8000d3a:	4b96      	ldr	r3, [pc, #600]	; (8000f94 <menu1+0x2c0>)
 8000d3c:	701a      	strb	r2, [r3, #0]
 8000d3e:	4b95      	ldr	r3, [pc, #596]	; (8000f94 <menu1+0x2c0>)
 8000d40:	781b      	ldrb	r3, [r3, #0]
 8000d42:	2b01      	cmp	r3, #1
 8000d44:	d107      	bne.n	8000d56 <menu1+0x82>
 8000d46:	79fb      	ldrb	r3, [r7, #7]
 8000d48:	3b01      	subs	r3, #1
 8000d4a:	71fb      	strb	r3, [r7, #7]
 8000d4c:	79fb      	ldrb	r3, [r7, #7]
 8000d4e:	2b00      	cmp	r3, #0
 8000d50:	d101      	bne.n	8000d56 <menu1+0x82>
 8000d52:	2306      	movs	r3, #6
 8000d54:	71fb      	strb	r3, [r7, #7]
 8000d56:	4b8f      	ldr	r3, [pc, #572]	; (8000f94 <menu1+0x2c0>)
 8000d58:	781b      	ldrb	r3, [r3, #0]
 8000d5a:	2b02      	cmp	r3, #2
 8000d5c:	d107      	bne.n	8000d6e <menu1+0x9a>
 8000d5e:	79fb      	ldrb	r3, [r7, #7]
 8000d60:	3301      	adds	r3, #1
 8000d62:	71fb      	strb	r3, [r7, #7]
 8000d64:	79fb      	ldrb	r3, [r7, #7]
 8000d66:	2b07      	cmp	r3, #7
 8000d68:	d101      	bne.n	8000d6e <menu1+0x9a>
 8000d6a:	2301      	movs	r3, #1
 8000d6c:	71fb      	strb	r3, [r7, #7]
 8000d6e:	4b89      	ldr	r3, [pc, #548]	; (8000f94 <menu1+0x2c0>)
 8000d70:	781b      	ldrb	r3, [r3, #0]
 8000d72:	2b03      	cmp	r3, #3
 8000d74:	d105      	bne.n	8000d82 <menu1+0xae>
 8000d76:	f000 fc9b 	bl	80016b0 <OLED_NewFrame>
 8000d7a:	f000 fca5 	bl	80016c8 <OLED_ShowFrame>
 8000d7e:	79fb      	ldrb	r3, [r7, #7]
 8000d80:	e0f8      	b.n	8000f74 <menu1+0x2a0>
 8000d82:	79fb      	ldrb	r3, [r7, #7]
 8000d84:	3b01      	subs	r3, #1
 8000d86:	2b05      	cmp	r3, #5
 8000d88:	f200 80f2 	bhi.w	8000f70 <menu1+0x29c>
 8000d8c:	a201      	add	r2, pc, #4	; (adr r2, 8000d94 <menu1+0xc0>)
 8000d8e:	f852 f023 	ldr.w	pc, [r2, r3, lsl #2]
 8000d92:	bf00      	nop
 8000d94:	08000dad 	.word	0x08000dad
 8000d98:	08000e03 	.word	0x08000e03
 8000d9c:	08000e59 	.word	0x08000e59
 8000da0:	08000eaf 	.word	0x08000eaf
 8000da4:	08000f05 	.word	0x08000f05
 8000da8:	08000f3b 	.word	0x08000f3b
 8000dac:	f000 fc80 	bl	80016b0 <OLED_NewFrame>
 8000db0:	2300      	movs	r3, #0
 8000db2:	4a72      	ldr	r2, [pc, #456]	; (8000f7c <menu1+0x2a8>)
 8000db4:	2100      	movs	r1, #0
 8000db6:	2000      	movs	r0, #0
 8000db8:	f000 ff8c 	bl	8001cd4 <OLED_DrawImage>
 8000dbc:	2300      	movs	r3, #0
 8000dbe:	9300      	str	r3, [sp, #0]
 8000dc0:	4b6f      	ldr	r3, [pc, #444]	; (8000f80 <menu1+0x2ac>)
 8000dc2:	4a70      	ldr	r2, [pc, #448]	; (8000f84 <menu1+0x2b0>)
 8000dc4:	2100      	movs	r1, #0
 8000dc6:	200a      	movs	r0, #10
 8000dc8:	f000 fffa 	bl	8001dc0 <OLED_PrintString>
 8000dcc:	2300      	movs	r3, #0
 8000dce:	9300      	str	r3, [sp, #0]
 8000dd0:	4b6b      	ldr	r3, [pc, #428]	; (8000f80 <menu1+0x2ac>)
 8000dd2:	4a6d      	ldr	r2, [pc, #436]	; (8000f88 <menu1+0x2b4>)
 8000dd4:	2110      	movs	r1, #16
 8000dd6:	200a      	movs	r0, #10
 8000dd8:	f000 fff2 	bl	8001dc0 <OLED_PrintString>
 8000ddc:	2300      	movs	r3, #0
 8000dde:	9300      	str	r3, [sp, #0]
 8000de0:	4b67      	ldr	r3, [pc, #412]	; (8000f80 <menu1+0x2ac>)
 8000de2:	4a6a      	ldr	r2, [pc, #424]	; (8000f8c <menu1+0x2b8>)
 8000de4:	2120      	movs	r1, #32
 8000de6:	200a      	movs	r0, #10
 8000de8:	f000 ffea 	bl	8001dc0 <OLED_PrintString>
 8000dec:	2300      	movs	r3, #0
 8000dee:	9300      	str	r3, [sp, #0]
 8000df0:	4b63      	ldr	r3, [pc, #396]	; (8000f80 <menu1+0x2ac>)
 8000df2:	4a67      	ldr	r2, [pc, #412]	; (8000f90 <menu1+0x2bc>)
 8000df4:	2130      	movs	r1, #48	; 0x30
 8000df6:	200a      	movs	r0, #10
 8000df8:	f000 ffe2 	bl	8001dc0 <OLED_PrintString>
 8000dfc:	f000 fc64 	bl	80016c8 <OLED_ShowFrame>
 8000e00:	e0b7      	b.n	8000f72 <menu1+0x29e>
 8000e02:	f000 fc55 	bl	80016b0 <OLED_NewFrame>
 8000e06:	2300      	movs	r3, #0
 8000e08:	4a5c      	ldr	r2, [pc, #368]	; (8000f7c <menu1+0x2a8>)
 8000e0a:	2110      	movs	r1, #16
 8000e0c:	2000      	movs	r0, #0
 8000e0e:	f000 ff61 	bl	8001cd4 <OLED_DrawImage>
 8000e12:	2300      	movs	r3, #0
 8000e14:	9300      	str	r3, [sp, #0]
 8000e16:	4b5a      	ldr	r3, [pc, #360]	; (8000f80 <menu1+0x2ac>)
 8000e18:	4a5a      	ldr	r2, [pc, #360]	; (8000f84 <menu1+0x2b0>)
 8000e1a:	2100      	movs	r1, #0
 8000e1c:	200a      	movs	r0, #10
 8000e1e:	f000 ffcf 	bl	8001dc0 <OLED_PrintString>
 8000e22:	2300      	movs	r3, #0
 8000e24:	9300      	str	r3, [sp, #0]
 8000e26:	4b56      	ldr	r3, [pc, #344]	; (8000f80 <menu1+0x2ac>)
 8000e28:	4a57      	ldr	r2, [pc, #348]	; (8000f88 <menu1+0x2b4>)
 8000e2a:	2110      	movs	r1, #16
 8000e2c:	200a      	movs	r0, #10
 8000e2e:	f000 ffc7 	bl	8001dc0 <OLED_PrintString>
 8000e32:	2300      	movs	r3, #0
 8000e34:	9300      	str	r3, [sp, #0]
 8000e36:	4b52      	ldr	r3, [pc, #328]	; (8000f80 <menu1+0x2ac>)
 8000e38:	4a54      	ldr	r2, [pc, #336]	; (8000f8c <menu1+0x2b8>)
 8000e3a:	2120      	movs	r1, #32
 8000e3c:	200a      	movs	r0, #10
 8000e3e:	f000 ffbf 	bl	8001dc0 <OLED_PrintString>
 8000e42:	2300      	movs	r3, #0
 8000e44:	9300      	str	r3, [sp, #0]
 8000e46:	4b4e      	ldr	r3, [pc, #312]	; (8000f80 <menu1+0x2ac>)
 8000e48:	4a51      	ldr	r2, [pc, #324]	; (8000f90 <menu1+0x2bc>)
 8000e4a:	2130      	movs	r1, #48	; 0x30
 8000e4c:	200a      	movs	r0, #10
 8000e4e:	f000 ffb7 	bl	8001dc0 <OLED_PrintString>
 8000e52:	f000 fc39 	bl	80016c8 <OLED_ShowFrame>
 8000e56:	e08c      	b.n	8000f72 <menu1+0x29e>
 8000e58:	f000 fc2a 	bl	80016b0 <OLED_NewFrame>
 8000e5c:	2300      	movs	r3, #0
 8000e5e:	4a47      	ldr	r2, [pc, #284]	; (8000f7c <menu1+0x2a8>)
 8000e60:	2120      	movs	r1, #32
 8000e62:	2000      	movs	r0, #0
 8000e64:	f000 ff36 	bl	8001cd4 <OLED_DrawImage>
 8000e68:	2300      	movs	r3, #0
 8000e6a:	9300      	str	r3, [sp, #0]
 8000e6c:	4b44      	ldr	r3, [pc, #272]	; (8000f80 <menu1+0x2ac>)
 8000e6e:	4a45      	ldr	r2, [pc, #276]	; (8000f84 <menu1+0x2b0>)
 8000e70:	2100      	movs	r1, #0
 8000e72:	200a      	movs	r0, #10
 8000e74:	f000 ffa4 	bl	8001dc0 <OLED_PrintString>
 8000e78:	2300      	movs	r3, #0
 8000e7a:	9300      	str	r3, [sp, #0]
 8000e7c:	4b40      	ldr	r3, [pc, #256]	; (8000f80 <menu1+0x2ac>)
 8000e7e:	4a42      	ldr	r2, [pc, #264]	; (8000f88 <menu1+0x2b4>)
 8000e80:	2110      	movs	r1, #16
 8000e82:	200a      	movs	r0, #10
 8000e84:	f000 ff9c 	bl	8001dc0 <OLED_PrintString>
 8000e88:	2300      	movs	r3, #0
 8000e8a:	9300      	str	r3, [sp, #0]
 8000e8c:	4b3c      	ldr	r3, [pc, #240]	; (8000f80 <menu1+0x2ac>)
 8000e8e:	4a3f      	ldr	r2, [pc, #252]	; (8000f8c <menu1+0x2b8>)
 8000e90:	2120      	movs	r1, #32
 8000e92:	200a      	movs	r0, #10
 8000e94:	f000 ff94 	bl	8001dc0 <OLED_PrintString>
 8000e98:	2300      	movs	r3, #0
 8000e9a:	9300      	str	r3, [sp, #0]
 8000e9c:	4b38      	ldr	r3, [pc, #224]	; (8000f80 <menu1+0x2ac>)
 8000e9e:	4a3c      	ldr	r2, [pc, #240]	; (8000f90 <menu1+0x2bc>)
 8000ea0:	2130      	movs	r1, #48	; 0x30
 8000ea2:	200a      	movs	r0, #10
 8000ea4:	f000 ff8c 	bl	8001dc0 <OLED_PrintString>
 8000ea8:	f000 fc0e 	bl	80016c8 <OLED_ShowFrame>
 8000eac:	e061      	b.n	8000f72 <menu1+0x29e>
 8000eae:	f000 fbff 	bl	80016b0 <OLED_NewFrame>
 8000eb2:	2300      	movs	r3, #0
 8000eb4:	4a31      	ldr	r2, [pc, #196]	; (8000f7c <menu1+0x2a8>)
 8000eb6:	2130      	movs	r1, #48	; 0x30
 8000eb8:	2000      	movs	r0, #0
 8000eba:	f000 ff0b 	bl	8001cd4 <OLED_DrawImage>
 8000ebe:	2300      	movs	r3, #0
 8000ec0:	9300      	str	r3, [sp, #0]
 8000ec2:	4b2f      	ldr	r3, [pc, #188]	; (8000f80 <menu1+0x2ac>)
 8000ec4:	4a2f      	ldr	r2, [pc, #188]	; (8000f84 <menu1+0x2b0>)
 8000ec6:	2100      	movs	r1, #0
 8000ec8:	200a      	movs	r0, #10
 8000eca:	f000 ff79 	bl	8001dc0 <OLED_PrintString>
 8000ece:	2300      	movs	r3, #0
 8000ed0:	9300      	str	r3, [sp, #0]
 8000ed2:	4b2b      	ldr	r3, [pc, #172]	; (8000f80 <menu1+0x2ac>)
 8000ed4:	4a2c      	ldr	r2, [pc, #176]	; (8000f88 <menu1+0x2b4>)
 8000ed6:	2110      	movs	r1, #16
 8000ed8:	200a      	movs	r0, #10
 8000eda:	f000 ff71 	bl	8001dc0 <OLED_PrintString>
 8000ede:	2300      	movs	r3, #0
 8000ee0:	9300      	str	r3, [sp, #0]
 8000ee2:	4b27      	ldr	r3, [pc, #156]	; (8000f80 <menu1+0x2ac>)
 8000ee4:	4a29      	ldr	r2, [pc, #164]	; (8000f8c <menu1+0x2b8>)
 8000ee6:	2120      	movs	r1, #32
 8000ee8:	200a      	movs	r0, #10
 8000eea:	f000 ff69 	bl	8001dc0 <OLED_PrintString>
 8000eee:	2300      	movs	r3, #0
 8000ef0:	9300      	str	r3, [sp, #0]
 8000ef2:	4b23      	ldr	r3, [pc, #140]	; (8000f80 <menu1+0x2ac>)
 8000ef4:	4a26      	ldr	r2, [pc, #152]	; (8000f90 <menu1+0x2bc>)
 8000ef6:	2130      	movs	r1, #48	; 0x30
 8000ef8:	200a      	movs	r0, #10
 8000efa:	f000 ff61 	bl	8001dc0 <OLED_PrintString>
 8000efe:	f000 fbe3 	bl	80016c8 <OLED_ShowFrame>
 8000f02:	e036      	b.n	8000f72 <menu1+0x29e>
 8000f04:	f000 fbd4 	bl	80016b0 <OLED_NewFrame>
 8000f08:	2300      	movs	r3, #0
 8000f0a:	4a1c      	ldr	r2, [pc, #112]	; (8000f7c <menu1+0x2a8>)
 8000f0c:	2100      	movs	r1, #0
 8000f0e:	2000      	movs	r0, #0
 8000f10:	f000 fee0 	bl	8001cd4 <OLED_DrawImage>
 8000f14:	2300      	movs	r3, #0
 8000f16:	9300      	str	r3, [sp, #0]
 8000f18:	4b19      	ldr	r3, [pc, #100]	; (8000f80 <menu1+0x2ac>)
 8000f1a:	4a1f      	ldr	r2, [pc, #124]	; (8000f98 <menu1+0x2c4>)
 8000f1c:	2100      	movs	r1, #0
 8000f1e:	200a      	movs	r0, #10
 8000f20:	f000 ff4e 	bl	8001dc0 <OLED_PrintString>
 8000f24:	2300      	movs	r3, #0
 8000f26:	9300      	str	r3, [sp, #0]
 8000f28:	4b15      	ldr	r3, [pc, #84]	; (8000f80 <menu1+0x2ac>)
 8000f2a:	4a1c      	ldr	r2, [pc, #112]	; (8000f9c <menu1+0x2c8>)
 8000f2c:	2110      	movs	r1, #16
 8000f2e:	200a      	movs	r0, #10
 8000f30:	f000 ff46 	bl	8001dc0 <OLED_PrintString>
 8000f34:	f000 fbc8 	bl	80016c8 <OLED_ShowFrame>
 8000f38:	e01b      	b.n	8000f72 <menu1+0x29e>
 8000f3a:	f000 fbb9 	bl	80016b0 <OLED_NewFrame>
 8000f3e:	2300      	movs	r3, #0
 8000f40:	4a0e      	ldr	r2, [pc, #56]	; (8000f7c <menu1+0x2a8>)
 8000f42:	2110      	movs	r1, #16
 8000f44:	2000      	movs	r0, #0
 8000f46:	f000 fec5 	bl	8001cd4 <OLED_DrawImage>
 8000f4a:	2300      	movs	r3, #0
 8000f4c:	9300      	str	r3, [sp, #0]
 8000f4e:	4b0c      	ldr	r3, [pc, #48]	; (8000f80 <menu1+0x2ac>)
 8000f50:	4a11      	ldr	r2, [pc, #68]	; (8000f98 <menu1+0x2c4>)
 8000f52:	2100      	movs	r1, #0
 8000f54:	200a      	movs	r0, #10
 8000f56:	f000 ff33 	bl	8001dc0 <OLED_PrintString>
 8000f5a:	2300      	movs	r3, #0
 8000f5c:	9300      	str	r3, [sp, #0]
 8000f5e:	4b08      	ldr	r3, [pc, #32]	; (8000f80 <menu1+0x2ac>)
 8000f60:	4a0e      	ldr	r2, [pc, #56]	; (8000f9c <menu1+0x2c8>)
 8000f62:	2110      	movs	r1, #16
 8000f64:	200a      	movs	r0, #10
 8000f66:	f000 ff2b 	bl	8001dc0 <OLED_PrintString>
 8000f6a:	f000 fbad 	bl	80016c8 <OLED_ShowFrame>
 8000f6e:	e000      	b.n	8000f72 <menu1+0x29e>
 8000f70:	bf00      	nop
 8000f72:	e6de      	b.n	8000d32 <menu1+0x5e>
 8000f74:	4618      	mov	r0, r3
 8000f76:	3708      	adds	r7, #8
 8000f78:	46bd      	mov	sp, r7
 8000f7a:	bd80      	pop	{r7, pc}
 8000f7c:	08005f20 	.word	0x08005f20
 8000f80:	08005d9c 	.word	0x08005d9c
 8000f84:	08004b18 	.word	0x08004b18
 8000f88:	08004b20 	.word	0x08004b20
 8000f8c:	08004b28 	.word	0x08004b28
 8000f90:	08004b38 	.word	0x08004b38
 8000f94:	2000010c 	.word	0x2000010c
 8000f98:	08004b44 	.word	0x08004b44
 8000f9c:	08004b4c 	.word	0x08004b4c

08000fa0 <MX_GPIO_Init>:
 8000fa0:	b580      	push	{r7, lr}
 8000fa2:	b088      	sub	sp, #32
 8000fa4:	af00      	add	r7, sp, #0
 8000fa6:	f107 0310 	add.w	r3, r7, #16
 8000faa:	2200      	movs	r2, #0
 8000fac:	601a      	str	r2, [r3, #0]
 8000fae:	605a      	str	r2, [r3, #4]
 8000fb0:	609a      	str	r2, [r3, #8]
 8000fb2:	60da      	str	r2, [r3, #12]
 8000fb4:	4b2a      	ldr	r3, [pc, #168]	; (8001060 <MX_GPIO_Init+0xc0>)
 8000fb6:	699b      	ldr	r3, [r3, #24]
 8000fb8:	4a29      	ldr	r2, [pc, #164]	; (8001060 <MX_GPIO_Init+0xc0>)
 8000fba:	f043 0310 	orr.w	r3, r3, #16
 8000fbe:	6193      	str	r3, [r2, #24]
 8000fc0:	4b27      	ldr	r3, [pc, #156]	; (8001060 <MX_GPIO_Init+0xc0>)
 8000fc2:	699b      	ldr	r3, [r3, #24]
 8000fc4:	f003 0310 	and.w	r3, r3, #16
 8000fc8:	60fb      	str	r3, [r7, #12]
 8000fca:	68fb      	ldr	r3, [r7, #12]
 8000fcc:	4b24      	ldr	r3, [pc, #144]	; (8001060 <MX_GPIO_Init+0xc0>)
 8000fce:	699b      	ldr	r3, [r3, #24]
 8000fd0:	4a23      	ldr	r2, [pc, #140]	; (8001060 <MX_GPIO_Init+0xc0>)
 8000fd2:	f043 0320 	orr.w	r3, r3, #32
 8000fd6:	6193      	str	r3, [r2, #24]
 8000fd8:	4b21      	ldr	r3, [pc, #132]	; (8001060 <MX_GPIO_Init+0xc0>)
 8000fda:	699b      	ldr	r3, [r3, #24]
 8000fdc:	f003 0320 	and.w	r3, r3, #32
 8000fe0:	60bb      	str	r3, [r7, #8]
 8000fe2:	68bb      	ldr	r3, [r7, #8]
 8000fe4:	4b1e      	ldr	r3, [pc, #120]	; (8001060 <MX_GPIO_Init+0xc0>)
 8000fe6:	699b      	ldr	r3, [r3, #24]
 8000fe8:	4a1d      	ldr	r2, [pc, #116]	; (8001060 <MX_GPIO_Init+0xc0>)
 8000fea:	f043 0308 	orr.w	r3, r3, #8
 8000fee:	6193      	str	r3, [r2, #24]
 8000ff0:	4b1b      	ldr	r3, [pc, #108]	; (8001060 <MX_GPIO_Init+0xc0>)
 8000ff2:	699b      	ldr	r3, [r3, #24]
 8000ff4:	f003 0308 	and.w	r3, r3, #8
 8000ff8:	607b      	str	r3, [r7, #4]
 8000ffa:	687b      	ldr	r3, [r7, #4]
 8000ffc:	4b18      	ldr	r3, [pc, #96]	; (8001060 <MX_GPIO_Init+0xc0>)
 8000ffe:	699b      	ldr	r3, [r3, #24]
 8001000:	4a17      	ldr	r2, [pc, #92]	; (8001060 <MX_GPIO_Init+0xc0>)
 8001002:	f043 0304 	orr.w	r3, r3, #4
 8001006:	6193      	str	r3, [r2, #24]
 8001008:	4b15      	ldr	r3, [pc, #84]	; (8001060 <MX_GPIO_Init+0xc0>)
 800100a:	699b      	ldr	r3, [r3, #24]
 800100c:	f003 0304 	and.w	r3, r3, #4
 8001010:	603b      	str	r3, [r7, #0]
 8001012:	683b      	ldr	r3, [r7, #0]
 8001014:	2201      	movs	r2, #1
 8001016:	f44f 5100 	mov.w	r1, #8192	; 0x2000
 800101a:	4812      	ldr	r0, [pc, #72]	; (8001064 <MX_GPIO_Init+0xc4>)
 800101c:	f001 faef 	bl	80025fe <HAL_GPIO_WritePin>
 8001020:	f44f 5300 	mov.w	r3, #8192	; 0x2000
 8001024:	613b      	str	r3, [r7, #16]
 8001026:	2301      	movs	r3, #1
 8001028:	617b      	str	r3, [r7, #20]
 800102a:	2301      	movs	r3, #1
 800102c:	61bb      	str	r3, [r7, #24]
 800102e:	2302      	movs	r3, #2
 8001030:	61fb      	str	r3, [r7, #28]
 8001032:	f107 0310 	add.w	r3, r7, #16
 8001036:	4619      	mov	r1, r3
 8001038:	480a      	ldr	r0, [pc, #40]	; (8001064 <MX_GPIO_Init+0xc4>)
 800103a:	f001 f945 	bl	80022c8 <HAL_GPIO_Init>
 800103e:	f44f 4370 	mov.w	r3, #61440	; 0xf000
 8001042:	613b      	str	r3, [r7, #16]
 8001044:	2300      	movs	r3, #0
 8001046:	617b      	str	r3, [r7, #20]
 8001048:	2301      	movs	r3, #1
 800104a:	61bb      	str	r3, [r7, #24]
 800104c:	f107 0310 	add.w	r3, r7, #16
 8001050:	4619      	mov	r1, r3
 8001052:	4805      	ldr	r0, [pc, #20]	; (8001068 <MX_GPIO_Init+0xc8>)
 8001054:	f001 f938 	bl	80022c8 <HAL_GPIO_Init>
 8001058:	bf00      	nop
 800105a:	3720      	adds	r7, #32
 800105c:	46bd      	mov	sp, r7
 800105e:	bd80      	pop	{r7, pc}
 8001060:	40021000 	.word	0x40021000
 8001064:	40011000 	.word	0x40011000
 8001068:	40010c00 	.word	0x40010c00

0800106c <MX_I2C1_Init>:
 800106c:	b580      	push	{r7, lr}
 800106e:	af00      	add	r7, sp, #0
 8001070:	4b12      	ldr	r3, [pc, #72]	; (80010bc <MX_I2C1_Init+0x50>)
 8001072:	4a13      	ldr	r2, [pc, #76]	; (80010c0 <MX_I2C1_Init+0x54>)
 8001074:	601a      	str	r2, [r3, #0]
 8001076:	4b11      	ldr	r3, [pc, #68]	; (80010bc <MX_I2C1_Init+0x50>)
 8001078:	4a12      	ldr	r2, [pc, #72]	; (80010c4 <MX_I2C1_Init+0x58>)
 800107a:	605a      	str	r2, [r3, #4]
 800107c:	4b0f      	ldr	r3, [pc, #60]	; (80010bc <MX_I2C1_Init+0x50>)
 800107e:	2200      	movs	r2, #0
 8001080:	609a      	str	r2, [r3, #8]
 8001082:	4b0e      	ldr	r3, [pc, #56]	; (80010bc <MX_I2C1_Init+0x50>)
 8001084:	2200      	movs	r2, #0
 8001086:	60da      	str	r2, [r3, #12]
 8001088:	4b0c      	ldr	r3, [pc, #48]	; (80010bc <MX_I2C1_Init+0x50>)
 800108a:	f44f 4280 	mov.w	r2, #16384	; 0x4000
 800108e:	611a      	str	r2, [r3, #16]
 8001090:	4b0a      	ldr	r3, [pc, #40]	; (80010bc <MX_I2C1_Init+0x50>)
 8001092:	2200      	movs	r2, #0
 8001094:	615a      	str	r2, [r3, #20]
 8001096:	4b09      	ldr	r3, [pc, #36]	; (80010bc <MX_I2C1_Init+0x50>)
 8001098:	2200      	movs	r2, #0
 800109a:	619a      	str	r2, [r3, #24]
 800109c:	4b07      	ldr	r3, [pc, #28]	; (80010bc <MX_I2C1_Init+0x50>)
 800109e:	2200      	movs	r2, #0
 80010a0:	61da      	str	r2, [r3, #28]
 80010a2:	4b06      	ldr	r3, [pc, #24]	; (80010bc <MX_I2C1_Init+0x50>)
 80010a4:	2200      	movs	r2, #0
 80010a6:	621a      	str	r2, [r3, #32]
 80010a8:	4804      	ldr	r0, [pc, #16]	; (80010bc <MX_I2C1_Init+0x50>)
 80010aa:	f001 fac1 	bl	8002630 <HAL_I2C_Init>
 80010ae:	4603      	mov	r3, r0
 80010b0:	2b00      	cmp	r3, #0
 80010b2:	d001      	beq.n	80010b8 <MX_I2C1_Init+0x4c>
 80010b4:	f000 f8c5 	bl	8001242 <Error_Handler>
 80010b8:	bf00      	nop
 80010ba:	bd80      	pop	{r7, pc}
 80010bc:	20000110 	.word	0x20000110
 80010c0:	40005400 	.word	0x40005400
 80010c4:	00061a80 	.word	0x00061a80

080010c8 <HAL_I2C_MspInit>:
 80010c8:	b580      	push	{r7, lr}
 80010ca:	b088      	sub	sp, #32
 80010cc:	af00      	add	r7, sp, #0
 80010ce:	6078      	str	r0, [r7, #4]
 80010d0:	f107 0310 	add.w	r3, r7, #16
 80010d4:	2200      	movs	r2, #0
 80010d6:	601a      	str	r2, [r3, #0]
 80010d8:	605a      	str	r2, [r3, #4]
 80010da:	609a      	str	r2, [r3, #8]
 80010dc:	60da      	str	r2, [r3, #12]
 80010de:	687b      	ldr	r3, [r7, #4]
 80010e0:	681b      	ldr	r3, [r3, #0]
 80010e2:	4a15      	ldr	r2, [pc, #84]	; (8001138 <HAL_I2C_MspInit+0x70>)
 80010e4:	4293      	cmp	r3, r2
 80010e6:	d123      	bne.n	8001130 <HAL_I2C_MspInit+0x68>
 80010e8:	4b14      	ldr	r3, [pc, #80]	; (800113c <HAL_I2C_MspInit+0x74>)
 80010ea:	699b      	ldr	r3, [r3, #24]
 80010ec:	4a13      	ldr	r2, [pc, #76]	; (800113c <HAL_I2C_MspInit+0x74>)
 80010ee:	f043 0308 	orr.w	r3, r3, #8
 80010f2:	6193      	str	r3, [r2, #24]
 80010f4:	4b11      	ldr	r3, [pc, #68]	; (800113c <HAL_I2C_MspInit+0x74>)
 80010f6:	699b      	ldr	r3, [r3, #24]
 80010f8:	f003 0308 	and.w	r3, r3, #8
 80010fc:	60fb      	str	r3, [r7, #12]
 80010fe:	68fb      	ldr	r3, [r7, #12]
 8001100:	23c0      	movs	r3, #192	; 0xc0
 8001102:	613b      	str	r3, [r7, #16]
 8001104:	2312      	movs	r3, #18
 8001106:	617b      	str	r3, [r7, #20]
 8001108:	2303      	movs	r3, #3
 800110a:	61fb      	str	r3, [r7, #28]
 800110c:	f107 0310 	add.w	r3, r7, #16
 8001110:	4619      	mov	r1, r3
 8001112:	480b      	ldr	r0, [pc, #44]	; (8001140 <HAL_I2C_MspInit+0x78>)
 8001114:	f001 f8d8 	bl	80022c8 <HAL_GPIO_Init>
 8001118:	4b08      	ldr	r3, [pc, #32]	; (800113c <HAL_I2C_MspInit+0x74>)
 800111a:	69db      	ldr	r3, [r3, #28]
 800111c:	4a07      	ldr	r2, [pc, #28]	; (800113c <HAL_I2C_MspInit+0x74>)
 800111e:	f443 1300 	orr.w	r3, r3, #2097152	; 0x200000
 8001122:	61d3      	str	r3, [r2, #28]
 8001124:	4b05      	ldr	r3, [pc, #20]	; (800113c <HAL_I2C_MspInit+0x74>)
 8001126:	69db      	ldr	r3, [r3, #28]
 8001128:	f403 1300 	and.w	r3, r3, #2097152	; 0x200000
 800112c:	60bb      	str	r3, [r7, #8]
 800112e:	68bb      	ldr	r3, [r7, #8]
 8001130:	bf00      	nop
 8001132:	3720      	adds	r7, #32
 8001134:	46bd      	mov	sp, r7
 8001136:	bd80      	pop	{r7, pc}
 8001138:	40005400 	.word	0x40005400
 800113c:	40021000 	.word	0x40021000
 8001140:	40010c00 	.word	0x40010c00

08001144 <main>:
 8001144:	b580      	push	{r7, lr}
 8001146:	b082      	sub	sp, #8
 8001148:	af00      	add	r7, sp, #0
 800114a:	f000 ff29 	bl	8001fa0 <HAL_Init>
 800114e:	f000 f81b 	bl	8001188 <SystemClock_Config>
 8001152:	f7ff ff25 	bl	8000fa0 <MX_GPIO_Init>
 8001156:	f000 f879 	bl	800124c <MX_RTC_Init>
 800115a:	f7ff ff87 	bl	800106c <MX_I2C1_Init>
 800115e:	f000 fa50 	bl	8001602 <OLED_Init>
 8001162:	f000 faa5 	bl	80016b0 <OLED_NewFrame>
 8001166:	f000 faaf 	bl	80016c8 <OLED_ShowFrame>
 800116a:	f7ff fdb3 	bl	8000cd4 <menu1>
 800116e:	6078      	str	r0, [r7, #4]
 8001170:	687b      	ldr	r3, [r7, #4]
 8001172:	2b02      	cmp	r3, #2
 8001174:	d102      	bne.n	800117c <main+0x38>
 8001176:	f7ff fcd9 	bl	8000b2c <menu2_games>
 800117a:	e7f6      	b.n	800116a <main+0x26>
 800117c:	687b      	ldr	r3, [r7, #4]
 800117e:	2b06      	cmp	r3, #6
 8001180:	d1f3      	bne.n	800116a <main+0x26>
 8001182:	f7ff fca7 	bl	8000ad4 <info_message>
 8001186:	e7f0      	b.n	800116a <main+0x26>

08001188 <SystemClock_Config>:
 8001188:	b580      	push	{r7, lr}
 800118a:	b094      	sub	sp, #80	; 0x50
 800118c:	af00      	add	r7, sp, #0
 800118e:	f107 0328 	add.w	r3, r7, #40	; 0x28
 8001192:	2228      	movs	r2, #40	; 0x28
 8001194:	2100      	movs	r1, #0
 8001196:	4618      	mov	r0, r3
 8001198:	f003 f84c 	bl	8004234 <memset>
 800119c:	f107 0314 	add.w	r3, r7, #20
 80011a0:	2200      	movs	r2, #0
 80011a2:	601a      	str	r2, [r3, #0]
 80011a4:	605a      	str	r2, [r3, #4]
 80011a6:	609a      	str	r2, [r3, #8]
 80011a8:	60da      	str	r2, [r3, #12]
 80011aa:	611a      	str	r2, [r3, #16]
 80011ac:	1d3b      	adds	r3, r7, #4
 80011ae:	2200      	movs	r2, #0
 80011b0:	601a      	str	r2, [r3, #0]
 80011b2:	605a      	str	r2, [r3, #4]
 80011b4:	609a      	str	r2, [r3, #8]
 80011b6:	60da      	str	r2, [r3, #12]
 80011b8:	2309      	movs	r3, #9
 80011ba:	62bb      	str	r3, [r7, #40]	; 0x28
 80011bc:	f44f 3380 	mov.w	r3, #65536	; 0x10000
 80011c0:	62fb      	str	r3, [r7, #44]	; 0x2c
 80011c2:	2300      	movs	r3, #0
 80011c4:	633b      	str	r3, [r7, #48]	; 0x30
 80011c6:	2301      	movs	r3, #1
 80011c8:	63bb      	str	r3, [r7, #56]	; 0x38
 80011ca:	2301      	movs	r3, #1
 80011cc:	643b      	str	r3, [r7, #64]	; 0x40
 80011ce:	2302      	movs	r3, #2
 80011d0:	647b      	str	r3, [r7, #68]	; 0x44
 80011d2:	f44f 3380 	mov.w	r3, #65536	; 0x10000
 80011d6:	64bb      	str	r3, [r7, #72]	; 0x48
 80011d8:	f44f 13e0 	mov.w	r3, #1835008	; 0x1c0000
 80011dc:	64fb      	str	r3, [r7, #76]	; 0x4c
 80011de:	f107 0328 	add.w	r3, r7, #40	; 0x28
 80011e2:	4618      	mov	r0, r3
 80011e4:	f001 fe7a 	bl	8002edc <HAL_RCC_OscConfig>
 80011e8:	4603      	mov	r3, r0
 80011ea:	2b00      	cmp	r3, #0
 80011ec:	d001      	beq.n	80011f2 <SystemClock_Config+0x6a>
 80011ee:	f000 f828 	bl	8001242 <Error_Handler>
 80011f2:	230f      	movs	r3, #15
 80011f4:	617b      	str	r3, [r7, #20]
 80011f6:	2302      	movs	r3, #2
 80011f8:	61bb      	str	r3, [r7, #24]
 80011fa:	2300      	movs	r3, #0
 80011fc:	61fb      	str	r3, [r7, #28]
 80011fe:	f44f 6380 	mov.w	r3, #1024	; 0x400
 8001202:	623b      	str	r3, [r7, #32]
 8001204:	2300      	movs	r3, #0
 8001206:	627b      	str	r3, [r7, #36]	; 0x24
 8001208:	f107 0314 	add.w	r3, r7, #20
 800120c:	2102      	movs	r1, #2
 800120e:	4618      	mov	r0, r3
 8001210:	f002 f8e6 	bl	80033e0 <HAL_RCC_ClockConfig>
 8001214:	4603      	mov	r3, r0
 8001216:	2b00      	cmp	r3, #0
 8001218:	d001      	beq.n	800121e <SystemClock_Config+0x96>
 800121a:	f000 f812 	bl	8001242 <Error_Handler>
 800121e:	2301      	movs	r3, #1
 8001220:	607b      	str	r3, [r7, #4]
 8001222:	f44f 7300 	mov.w	r3, #512	; 0x200
 8001226:	60bb      	str	r3, [r7, #8]
 8001228:	1d3b      	adds	r3, r7, #4
 800122a:	4618      	mov	r0, r3
 800122c:	f002 fa70 	bl	8003710 <HAL_RCCEx_PeriphCLKConfig>
 8001230:	4603      	mov	r3, r0
 8001232:	2b00      	cmp	r3, #0
 8001234:	d001      	beq.n	800123a <SystemClock_Config+0xb2>
 8001236:	f000 f804 	bl	8001242 <Error_Handler>
 800123a:	bf00      	nop
 800123c:	3750      	adds	r7, #80	; 0x50
 800123e:	46bd      	mov	sp, r7
 8001240:	bd80      	pop	{r7, pc}

08001242 <Error_Handler>:
 8001242:	b480      	push	{r7}
 8001244:	af00      	add	r7, sp, #0
 8001246:	b672      	cpsid	i
 8001248:	e7fe      	b.n	8001248 <Error_Handler+0x6>
	...

0800124c <MX_RTC_Init>:
 800124c:	b580      	push	{r7, lr}
 800124e:	b082      	sub	sp, #8
 8001250:	af00      	add	r7, sp, #0
 8001252:	1d3b      	adds	r3, r7, #4
 8001254:	2100      	movs	r1, #0
 8001256:	460a      	mov	r2, r1
 8001258:	801a      	strh	r2, [r3, #0]
 800125a:	460a      	mov	r2, r1
 800125c:	709a      	strb	r2, [r3, #2]
 800125e:	2300      	movs	r3, #0
 8001260:	603b      	str	r3, [r7, #0]
 8001262:	4b1d      	ldr	r3, [pc, #116]	; (80012d8 <MX_RTC_Init+0x8c>)
 8001264:	4a1d      	ldr	r2, [pc, #116]	; (80012dc <MX_RTC_Init+0x90>)
 8001266:	601a      	str	r2, [r3, #0]
 8001268:	4b1b      	ldr	r3, [pc, #108]	; (80012d8 <MX_RTC_Init+0x8c>)
 800126a:	f04f 32ff 	mov.w	r2, #4294967295
 800126e:	605a      	str	r2, [r3, #4]
 8001270:	4b19      	ldr	r3, [pc, #100]	; (80012d8 <MX_RTC_Init+0x8c>)
 8001272:	2200      	movs	r2, #0
 8001274:	609a      	str	r2, [r3, #8]
 8001276:	4818      	ldr	r0, [pc, #96]	; (80012d8 <MX_RTC_Init+0x8c>)
 8001278:	f002 fbc0 	bl	80039fc <HAL_RTC_Init>
 800127c:	4603      	mov	r3, r0
 800127e:	2b00      	cmp	r3, #0
 8001280:	d001      	beq.n	8001286 <MX_RTC_Init+0x3a>
 8001282:	f7ff ffde 	bl	8001242 <Error_Handler>
 8001286:	2310      	movs	r3, #16
 8001288:	713b      	strb	r3, [r7, #4]
 800128a:	2310      	movs	r3, #16
 800128c:	717b      	strb	r3, [r7, #5]
 800128e:	2310      	movs	r3, #16
 8001290:	71bb      	strb	r3, [r7, #6]
 8001292:	1d3b      	adds	r3, r7, #4
 8001294:	2201      	movs	r2, #1
 8001296:	4619      	mov	r1, r3
 8001298:	480f      	ldr	r0, [pc, #60]	; (80012d8 <MX_RTC_Init+0x8c>)
 800129a:	f002 fc45 	bl	8003b28 <HAL_RTC_SetTime>
 800129e:	4603      	mov	r3, r0
 80012a0:	2b00      	cmp	r3, #0
 80012a2:	d001      	beq.n	80012a8 <MX_RTC_Init+0x5c>
 80012a4:	f7ff ffcd 	bl	8001242 <Error_Handler>
 80012a8:	2301      	movs	r3, #1
 80012aa:	703b      	strb	r3, [r7, #0]
 80012ac:	2301      	movs	r3, #1
 80012ae:	707b      	strb	r3, [r7, #1]
 80012b0:	2322      	movs	r3, #34	; 0x22
 80012b2:	70bb      	strb	r3, [r7, #2]
 80012b4:	2300      	movs	r3, #0
 80012b6:	70fb      	strb	r3, [r7, #3]
 80012b8:	463b      	mov	r3, r7
 80012ba:	2201      	movs	r2, #1
 80012bc:	4619      	mov	r1, r3
 80012be:	4806      	ldr	r0, [pc, #24]	; (80012d8 <MX_RTC_Init+0x8c>)
 80012c0:	f002 fcca 	bl	8003c58 <HAL_RTC_SetDate>
 80012c4:	4603      	mov	r3, r0
 80012c6:	2b00      	cmp	r3, #0
 80012c8:	d001      	beq.n	80012ce <MX_RTC_Init+0x82>
 80012ca:	f7ff ffba 	bl	8001242 <Error_Handler>
 80012ce:	bf00      	nop
 80012d0:	3708      	adds	r7, #8
 80012d2:	46bd      	mov	sp, r7
 80012d4:	bd80      	pop	{r7, pc}
 80012d6:	bf00      	nop
 80012d8:	20000164 	.word	0x20000164
 80012dc:	40002800 	.word	0x40002800

080012e0 <HAL_RTC_MspInit>:
 80012e0:	b580      	push	{r7, lr}
 80012e2:	b084      	sub	sp, #16
 80012e4:	af00      	add	r7, sp, #0
 80012e6:	6078      	str	r0, [r7, #4]
 80012e8:	687b      	ldr	r3, [r7, #4]
 80012ea:	681b      	ldr	r3, [r3, #0]
 80012ec:	4a0f      	ldr	r2, [pc, #60]	; (800132c <HAL_RTC_MspInit+0x4c>)
 80012ee:	4293      	cmp	r3, r2
 80012f0:	d118      	bne.n	8001324 <HAL_RTC_MspInit+0x44>
 80012f2:	f001 fde7 	bl	8002ec4 <HAL_PWR_EnableBkUpAccess>
 80012f6:	4b0e      	ldr	r3, [pc, #56]	; (8001330 <HAL_RTC_MspInit+0x50>)
 80012f8:	69db      	ldr	r3, [r3, #28]
 80012fa:	4a0d      	ldr	r2, [pc, #52]	; (8001330 <HAL_RTC_MspInit+0x50>)
 80012fc:	f043 6300 	orr.w	r3, r3, #134217728	; 0x8000000
 8001300:	61d3      	str	r3, [r2, #28]
 8001302:	4b0b      	ldr	r3, [pc, #44]	; (8001330 <HAL_RTC_MspInit+0x50>)
 8001304:	69db      	ldr	r3, [r3, #28]
 8001306:	f003 6300 	and.w	r3, r3, #134217728	; 0x8000000
 800130a:	60fb      	str	r3, [r7, #12]
 800130c:	68fb      	ldr	r3, [r7, #12]
 800130e:	4b09      	ldr	r3, [pc, #36]	; (8001334 <HAL_RTC_MspInit+0x54>)
 8001310:	2201      	movs	r2, #1
 8001312:	601a      	str	r2, [r3, #0]
 8001314:	2200      	movs	r2, #0
 8001316:	2102      	movs	r1, #2
 8001318:	2003      	movs	r0, #3
 800131a:	f000 ff9e 	bl	800225a <HAL_NVIC_SetPriority>
 800131e:	2003      	movs	r0, #3
 8001320:	f000 ffb7 	bl	8002292 <HAL_NVIC_EnableIRQ>
 8001324:	bf00      	nop
 8001326:	3710      	adds	r7, #16
 8001328:	46bd      	mov	sp, r7
 800132a:	bd80      	pop	{r7, pc}
 800132c:	40002800 	.word	0x40002800
 8001330:	40021000 	.word	0x40021000
 8001334:	4242043c 	.word	0x4242043c

08001338 <HAL_MspInit>:
 8001338:	b480      	push	{r7}
 800133a:	b085      	sub	sp, #20
 800133c:	af00      	add	r7, sp, #0
 800133e:	4b15      	ldr	r3, [pc, #84]	; (8001394 <HAL_MspInit+0x5c>)
 8001340:	699b      	ldr	r3, [r3, #24]
 8001342:	4a14      	ldr	r2, [pc, #80]	; (8001394 <HAL_MspInit+0x5c>)
 8001344:	f043 0301 	orr.w	r3, r3, #1
 8001348:	6193      	str	r3, [r2, #24]
 800134a:	4b12      	ldr	r3, [pc, #72]	; (8001394 <HAL_MspInit+0x5c>)
 800134c:	699b      	ldr	r3, [r3, #24]
 800134e:	f003 0301 	and.w	r3, r3, #1
 8001352:	60bb      	str	r3, [r7, #8]
 8001354:	68bb      	ldr	r3, [r7, #8]
 8001356:	4b0f      	ldr	r3, [pc, #60]	; (8001394 <HAL_MspInit+0x5c>)
 8001358:	69db      	ldr	r3, [r3, #28]
 800135a:	4a0e      	ldr	r2, [pc, #56]	; (8001394 <HAL_MspInit+0x5c>)
 800135c:	f043 5380 	orr.w	r3, r3, #268435456	; 0x10000000
 8001360:	61d3      	str	r3, [r2, #28]
 8001362:	4b0c      	ldr	r3, [pc, #48]	; (8001394 <HAL_MspInit+0x5c>)
 8001364:	69db      	ldr	r3, [r3, #28]
 8001366:	f003 5380 	and.w	r3, r3, #268435456	; 0x10000000
 800136a:	607b      	str	r3, [r7, #4]
 800136c:	687b      	ldr	r3, [r7, #4]
 800136e:	4b0a      	ldr	r3, [pc, #40]	; (8001398 <HAL_MspInit+0x60>)
 8001370:	685b      	ldr	r3, [r3, #4]
 8001372:	60fb      	str	r3, [r7, #12]
 8001374:	68fb      	ldr	r3, [r7, #12]
 8001376:	f023 63e0 	bic.w	r3, r3, #117440512	; 0x7000000
 800137a:	60fb      	str	r3, [r7, #12]
 800137c:	68fb      	ldr	r3, [r7, #12]
 800137e:	f043 7300 	orr.w	r3, r3, #33554432	; 0x2000000
 8001382:	60fb      	str	r3, [r7, #12]
 8001384:	4a04      	ldr	r2, [pc, #16]	; (8001398 <HAL_MspInit+0x60>)
 8001386:	68fb      	ldr	r3, [r7, #12]
 8001388:	6053      	str	r3, [r2, #4]
 800138a:	bf00      	nop
 800138c:	3714      	adds	r7, #20
 800138e:	46bd      	mov	sp, r7
 8001390:	bc80      	pop	{r7}
 8001392:	4770      	bx	lr
 8001394:	40021000 	.word	0x40021000
 8001398:	40010000 	.word	0x40010000

0800139c <NMI_Handler>:
 800139c:	b480      	push	{r7}
 800139e:	af00      	add	r7, sp, #0
 80013a0:	bf00      	nop
 80013a2:	e7fd      	b.n	80013a0 <NMI_Handler+0x4>

080013a4 <HardFault_Handler>:
 80013a4:	b480      	push	{r7}
 80013a6:	af00      	add	r7, sp, #0
 80013a8:	bf00      	nop
 80013aa:	e7fd      	b.n	80013a8 <HardFault_Handler+0x4>

080013ac <MemManage_Handler>:
 80013ac:	b480      	push	{r7}
 80013ae:	af00      	add	r7, sp, #0
 80013b0:	bf00      	nop
 80013b2:	e7fd      	b.n	80013b0 <MemManage_Handler+0x4>

080013b4 <BusFault_Handler>:
 80013b4:	b480      	push	{r7}
 80013b6:	af00      	add	r7, sp, #0
 80013b8:	bf00      	nop
 80013ba:	e7fd      	b.n	80013b8 <BusFault_Handler+0x4>

080013bc <UsageFault_Handler>:
 80013bc:	b480      	push	{r7}
 80013be:	af00      	add	r7, sp, #0
 80013c0:	bf00      	nop
 80013c2:	e7fd      	b.n	80013c0 <UsageFault_Handler+0x4>

080013c4 <SVC_Handler>:
 80013c4:	b480      	push	{r7}
 80013c6:	af00      	add	r7, sp, #0
 80013c8:	bf00      	nop
 80013ca:	46bd      	mov	sp, r7
 80013cc:	bc80      	pop	{r7}
 80013ce:	4770      	bx	lr

080013d0 <DebugMon_Handler>:
 80013d0:	b480      	push	{r7}
 80013d2:	af00      	add	r7, sp, #0
 80013d4:	bf00      	nop
 80013d6:	46bd      	mov	sp, r7
 80013d8:	bc80      	pop	{r7}
 80013da:	4770      	bx	lr

080013dc <PendSV_Handler>:
 80013dc:	b480      	push	{r7}
 80013de:	af00      	add	r7, sp, #0
 80013e0:	bf00      	nop
 80013e2:	46bd      	mov	sp, r7
 80013e4:	bc80      	pop	{r7}
 80013e6:	4770      	bx	lr

080013e8 <SysTick_Handler>:
 80013e8:	b580      	push	{r7, lr}
 80013ea:	af00      	add	r7, sp, #0
 80013ec:	f000 fe1e 	bl	800202c <HAL_IncTick>
 80013f0:	bf00      	nop
 80013f2:	bd80      	pop	{r7, pc}

080013f4 <RTC_IRQHandler>:
 80013f4:	b580      	push	{r7, lr}
 80013f6:	af00      	add	r7, sp, #0
 80013f8:	4802      	ldr	r0, [pc, #8]	; (8001404 <RTC_IRQHandler+0x10>)
 80013fa:	f002 fe8d 	bl	8004118 <HAL_RTCEx_RTCIRQHandler>
 80013fe:	bf00      	nop
 8001400:	bd80      	pop	{r7, pc}
 8001402:	bf00      	nop
 8001404:	20000164 	.word	0x20000164

08001408 <_sbrk>:
 8001408:	b580      	push	{r7, lr}
 800140a:	b086      	sub	sp, #24
 800140c:	af00      	add	r7, sp, #0
 800140e:	6078      	str	r0, [r7, #4]
 8001410:	4a14      	ldr	r2, [pc, #80]	; (8001464 <_sbrk+0x5c>)
 8001412:	4b15      	ldr	r3, [pc, #84]	; (8001468 <_sbrk+0x60>)
 8001414:	1ad3      	subs	r3, r2, r3
 8001416:	617b      	str	r3, [r7, #20]
 8001418:	697b      	ldr	r3, [r7, #20]
 800141a:	613b      	str	r3, [r7, #16]
 800141c:	4b13      	ldr	r3, [pc, #76]	; (800146c <_sbrk+0x64>)
 800141e:	681b      	ldr	r3, [r3, #0]
 8001420:	2b00      	cmp	r3, #0
 8001422:	d102      	bne.n	800142a <_sbrk+0x22>
 8001424:	4b11      	ldr	r3, [pc, #68]	; (800146c <_sbrk+0x64>)
 8001426:	4a12      	ldr	r2, [pc, #72]	; (8001470 <_sbrk+0x68>)
 8001428:	601a      	str	r2, [r3, #0]
 800142a:	4b10      	ldr	r3, [pc, #64]	; (800146c <_sbrk+0x64>)
 800142c:	681a      	ldr	r2, [r3, #0]
 800142e:	687b      	ldr	r3, [r7, #4]
 8001430:	4413      	add	r3, r2
 8001432:	693a      	ldr	r2, [r7, #16]
 8001434:	429a      	cmp	r2, r3
 8001436:	d207      	bcs.n	8001448 <_sbrk+0x40>
 8001438:	f002 feb8 	bl	80041ac <__errno>
 800143c:	4603      	mov	r3, r0
 800143e:	220c      	movs	r2, #12
 8001440:	601a      	str	r2, [r3, #0]
 8001442:	f04f 33ff 	mov.w	r3, #4294967295
 8001446:	e009      	b.n	800145c <_sbrk+0x54>
 8001448:	4b08      	ldr	r3, [pc, #32]	; (800146c <_sbrk+0x64>)
 800144a:	681b      	ldr	r3, [r3, #0]
 800144c:	60fb      	str	r3, [r7, #12]
 800144e:	4b07      	ldr	r3, [pc, #28]	; (800146c <_sbrk+0x64>)
 8001450:	681a      	ldr	r2, [r3, #0]
 8001452:	687b      	ldr	r3, [r7, #4]
 8001454:	4413      	add	r3, r2
 8001456:	4a05      	ldr	r2, [pc, #20]	; (800146c <_sbrk+0x64>)
 8001458:	6013      	str	r3, [r2, #0]
 800145a:	68fb      	ldr	r3, [r7, #12]
 800145c:	4618      	mov	r0, r3
 800145e:	3718      	adds	r7, #24
 8001460:	46bd      	mov	sp, r7
 8001462:	bd80      	pop	{r7, pc}
 8001464:	20005000 	.word	0x20005000
 8001468:	00000400 	.word	0x00000400
 800146c:	20000178 	.word	0x20000178
 8001470:	20000610 	.word	0x20000610

08001474 <SystemInit>:
 8001474:	b480      	push	{r7}
 8001476:	af00      	add	r7, sp, #0
 8001478:	bf00      	nop
 800147a:	46bd      	mov	sp, r7
 800147c:	bc80      	pop	{r7}
 800147e:	4770      	bx	lr

08001480 <Reset_Handler>:
 8001480:	480c      	ldr	r0, [pc, #48]	; (80014b4 <LoopFillZerobss+0x12>)
 8001482:	490d      	ldr	r1, [pc, #52]	; (80014b8 <LoopFillZerobss+0x16>)
 8001484:	4a0d      	ldr	r2, [pc, #52]	; (80014bc <LoopFillZerobss+0x1a>)
 8001486:	2300      	movs	r3, #0
 8001488:	e002      	b.n	8001490 <LoopCopyDataInit>

0800148a <CopyDataInit>:
 800148a:	58d4      	ldr	r4, [r2, r3]
 800148c:	50c4      	str	r4, [r0, r3]
 800148e:	3304      	adds	r3, #4

08001490 <LoopCopyDataInit>:
 8001490:	18c4      	adds	r4, r0, r3
 8001492:	428c      	cmp	r4, r1
 8001494:	d3f9      	bcc.n	800148a <CopyDataInit>
 8001496:	4a0a      	ldr	r2, [pc, #40]	; (80014c0 <LoopFillZerobss+0x1e>)
 8001498:	4c0a      	ldr	r4, [pc, #40]	; (80014c4 <LoopFillZerobss+0x22>)
 800149a:	2300      	movs	r3, #0
 800149c:	e001      	b.n	80014a2 <LoopFillZerobss>

0800149e <FillZerobss>:
 800149e:	6013      	str	r3, [r2, #0]
 80014a0:	3204      	adds	r2, #4

080014a2 <LoopFillZerobss>:
 80014a2:	42a2      	cmp	r2, r4
 80014a4:	d3fb      	bcc.n	800149e <FillZerobss>
 80014a6:	f7ff ffe5 	bl	8001474 <SystemInit>
 80014aa:	f002 fe85 	bl	80041b8 <__libc_init_array>
 80014ae:	f7ff fe49 	bl	8001144 <main>
 80014b2:	4770      	bx	lr
 80014b4:	20000000 	.word	0x20000000
 80014b8:	20000098 	.word	0x20000098
 80014bc:	08005f64 	.word	0x08005f64
 80014c0:	20000098 	.word	0x20000098
 80014c4:	20000610 	.word	0x20000610

080014c8 <ADC1_2_IRQHandler>:
 80014c8:	e7fe      	b.n	80014c8 <ADC1_2_IRQHandler>
	...

080014cc <Key_GetNum>:
 80014cc:	b580      	push	{r7, lr}
 80014ce:	b082      	sub	sp, #8
 80014d0:	af00      	add	r7, sp, #0
 80014d2:	2300      	movs	r3, #0
 80014d4:	71fb      	strb	r3, [r7, #7]
 80014d6:	f44f 5180 	mov.w	r1, #4096	; 0x1000
 80014da:	4833      	ldr	r0, [pc, #204]	; (80015a8 <Key_GetNum+0xdc>)
 80014dc:	f001 f878 	bl	80025d0 <HAL_GPIO_ReadPin>
 80014e0:	4603      	mov	r3, r0
 80014e2:	2b00      	cmp	r3, #0
 80014e4:	d110      	bne.n	8001508 <Key_GetNum+0x3c>
 80014e6:	2014      	movs	r0, #20
 80014e8:	f000 fdbc 	bl	8002064 <HAL_Delay>
 80014ec:	bf00      	nop
 80014ee:	f44f 5180 	mov.w	r1, #4096	; 0x1000
 80014f2:	482d      	ldr	r0, [pc, #180]	; (80015a8 <Key_GetNum+0xdc>)
 80014f4:	f001 f86c 	bl	80025d0 <HAL_GPIO_ReadPin>
 80014f8:	4603      	mov	r3, r0
 80014fa:	2b00      	cmp	r3, #0
 80014fc:	d0f7      	beq.n	80014ee <Key_GetNum+0x22>
 80014fe:	2014      	movs	r0, #20
 8001500:	f000 fdb0 	bl	8002064 <HAL_Delay>
 8001504:	2301      	movs	r3, #1
 8001506:	71fb      	strb	r3, [r7, #7]
 8001508:	f44f 5100 	mov.w	r1, #8192	; 0x2000
 800150c:	4826      	ldr	r0, [pc, #152]	; (80015a8 <Key_GetNum+0xdc>)
 800150e:	f001 f85f 	bl	80025d0 <HAL_GPIO_ReadPin>
 8001512:	4603      	mov	r3, r0
 8001514:	2b00      	cmp	r3, #0
 8001516:	d110      	bne.n	800153a <Key_GetNum+0x6e>
 8001518:	2014      	movs	r0, #20
 800151a:	f000 fda3 	bl	8002064 <HAL_Delay>
 800151e:	bf00      	nop
 8001520:	f44f 5100 	mov.w	r1, #8192	; 0x2000
 8001524:	4820      	ldr	r0, [pc, #128]	; (80015a8 <Key_GetNum+0xdc>)
 8001526:	f001 f853 	bl	80025d0 <HAL_GPIO_ReadPin>
 800152a:	4603      	mov	r3, r0
 800152c:	2b00      	cmp	r3, #0
 800152e:	d0f7      	beq.n	8001520 <Key_GetNum+0x54>
 8001530:	2014      	movs	r0, #20
 8001532:	f000 fd97 	bl	8002064 <HAL_Delay>
 8001536:	2302      	movs	r3, #2
 8001538:	71fb      	strb	r3, [r7, #7]
 800153a:	f44f 4180 	mov.w	r1, #16384	; 0x4000
 800153e:	481a      	ldr	r0, [pc, #104]	; (80015a8 <Key_GetNum+0xdc>)
 8001540:	f001 f846 	bl	80025d0 <HAL_GPIO_ReadPin>
 8001544:	4603      	mov	r3, r0
 8001546:	2b00      	cmp	r3, #0
 8001548:	d110      	bne.n	800156c <Key_GetNum+0xa0>
 800154a:	2014      	movs	r0, #20
 800154c:	f000 fd8a 	bl	8002064 <HAL_Delay>
 8001550:	bf00      	nop
 8001552:	f44f 4180 	mov.w	r1, #16384	; 0x4000
 8001556:	4814      	ldr	r0, [pc, #80]	; (80015a8 <Key_GetNum+0xdc>)
 8001558:	f001 f83a 	bl	80025d0 <HAL_GPIO_ReadPin>
 800155c:	4603      	mov	r3, r0
 800155e:	2b00      	cmp	r3, #0
 8001560:	d0f7      	beq.n	8001552 <Key_GetNum+0x86>
 8001562:	2014      	movs	r0, #20
 8001564:	f000 fd7e 	bl	8002064 <HAL_Delay>
 8001568:	2303      	movs	r3, #3
 800156a:	71fb      	strb	r3, [r7, #7]
 800156c:	f44f 4100 	mov.w	r1, #32768	; 0x8000
 8001570:	480d      	ldr	r0, [pc, #52]	; (80015a8 <Key_GetNum+0xdc>)
 8001572:	f001 f82d 	bl	80025d0 <HAL_GPIO_ReadPin>
 8001576:	4603      	mov	r3, r0
 8001578:	2b00      	cmp	r3, #0
 800157a:	d110      	bne.n	800159e <Key_GetNum+0xd2>
 800157c:	2014      	movs	r0, #20
 800157e:	f000 fd71 	bl	8002064 <HAL_Delay>
 8001582:	bf00      	nop
 8001584:	f44f 4100 	mov.w	r1, #32768	; 0x8000
 8001588:	4807      	ldr	r0, [pc, #28]	; (80015a8 <Key_GetNum+0xdc>)
 800158a:	f001 f821 	bl	80025d0 <HAL_GPIO_ReadPin>
 800158e:	4603      	mov	r3, r0
 8001590:	2b00      	cmp	r3, #0
 8001592:	d0f7      	beq.n	8001584 <Key_GetNum+0xb8>
 8001594:	2014      	movs	r0, #20
 8001596:	f000 fd65 	bl	8002064 <HAL_Delay>
 800159a:	2304      	movs	r3, #4
 800159c:	71fb      	strb	r3, [r7, #7]
 800159e:	79fb      	ldrb	r3, [r7, #7]
 80015a0:	4618      	mov	r0, r3
 80015a2:	3708      	adds	r7, #8
 80015a4:	46bd      	mov	sp, r7
 80015a6:	bd80      	pop	{r7, pc}
 80015a8:	40010c00 	.word	0x40010c00

080015ac <Send>:
 80015ac:	b580      	push	{r7, lr}
 80015ae:	b084      	sub	sp, #16
 80015b0:	af02      	add	r7, sp, #8
 80015b2:	6078      	str	r0, [r7, #4]
 80015b4:	460b      	mov	r3, r1
 80015b6:	70fb      	strb	r3, [r7, #3]
 80015b8:	78fb      	ldrb	r3, [r7, #3]
 80015ba:	b29b      	uxth	r3, r3
 80015bc:	f04f 32ff 	mov.w	r2, #4294967295
 80015c0:	9200      	str	r2, [sp, #0]
 80015c2:	687a      	ldr	r2, [r7, #4]
 80015c4:	2178      	movs	r1, #120	; 0x78
 80015c6:	4803      	ldr	r0, [pc, #12]	; (80015d4 <Send+0x28>)
 80015c8:	f001 f976 	bl	80028b8 <HAL_I2C_Master_Transmit>
 80015cc:	bf00      	nop
 80015ce:	3708      	adds	r7, #8
 80015d0:	46bd      	mov	sp, r7
 80015d2:	bd80      	pop	{r7, pc}
 80015d4:	20000110 	.word	0x20000110

080015d8 <OLED_SendCmd>:
 80015d8:	b580      	push	{r7, lr}
 80015da:	b084      	sub	sp, #16
 80015dc:	af00      	add	r7, sp, #0
 80015de:	4603      	mov	r3, r0
 80015e0:	71fb      	strb	r3, [r7, #7]
 80015e2:	2300      	movs	r3, #0
 80015e4:	81bb      	strh	r3, [r7, #12]
 80015e6:	2300      	movs	r3, #0
 80015e8:	733b      	strb	r3, [r7, #12]
 80015ea:	79fb      	ldrb	r3, [r7, #7]
 80015ec:	737b      	strb	r3, [r7, #13]
 80015ee:	f107 030c 	add.w	r3, r7, #12
 80015f2:	2102      	movs	r1, #2
 80015f4:	4618      	mov	r0, r3
 80015f6:	f7ff ffd9 	bl	80015ac <Send>
 80015fa:	bf00      	nop
 80015fc:	3710      	adds	r7, #16
 80015fe:	46bd      	mov	sp, r7
 8001600:	bd80      	pop	{r7, pc}

08001602 <OLED_Init>:
 8001602:	b580      	push	{r7, lr}
 8001604:	af00      	add	r7, sp, #0
 8001606:	20ae      	movs	r0, #174	; 0xae
 8001608:	f7ff ffe6 	bl	80015d8 <OLED_SendCmd>
 800160c:	2002      	movs	r0, #2
 800160e:	f7ff ffe3 	bl	80015d8 <OLED_SendCmd>
 8001612:	2010      	movs	r0, #16
 8001614:	f7ff ffe0 	bl	80015d8 <OLED_SendCmd>
 8001618:	2040      	movs	r0, #64	; 0x40
 800161a:	f7ff ffdd 	bl	80015d8 <OLED_SendCmd>
 800161e:	20b0      	movs	r0, #176	; 0xb0
 8001620:	f7ff ffda 	bl	80015d8 <OLED_SendCmd>
 8001624:	2081      	movs	r0, #129	; 0x81
 8001626:	f7ff ffd7 	bl	80015d8 <OLED_SendCmd>
 800162a:	20cf      	movs	r0, #207	; 0xcf
 800162c:	f7ff ffd4 	bl	80015d8 <OLED_SendCmd>
 8001630:	20a1      	movs	r0, #161	; 0xa1
 8001632:	f7ff ffd1 	bl	80015d8 <OLED_SendCmd>
 8001636:	20a6      	movs	r0, #166	; 0xa6
 8001638:	f7ff ffce 	bl	80015d8 <OLED_SendCmd>
 800163c:	20a8      	movs	r0, #168	; 0xa8
 800163e:	f7ff ffcb 	bl	80015d8 <OLED_SendCmd>
 8001642:	203f      	movs	r0, #63	; 0x3f
 8001644:	f7ff ffc8 	bl	80015d8 <OLED_SendCmd>
 8001648:	20ad      	movs	r0, #173	; 0xad
 800164a:	f7ff ffc5 	bl	80015d8 <OLED_SendCmd>
 800164e:	208b      	movs	r0, #139	; 0x8b
 8001650:	f7ff ffc2 	bl	80015d8 <OLED_SendCmd>
 8001654:	2033      	movs	r0, #51	; 0x33
 8001656:	f7ff ffbf 	bl	80015d8 <OLED_SendCmd>
 800165a:	20c8      	movs	r0, #200	; 0xc8
 800165c:	f7ff ffbc 	bl	80015d8 <OLED_SendCmd>
 8001660:	20d3      	movs	r0, #211	; 0xd3
 8001662:	f7ff ffb9 	bl	80015d8 <OLED_SendCmd>
 8001666:	2000      	movs	r0, #0
 8001668:	f7ff ffb6 	bl	80015d8 <OLED_SendCmd>
 800166c:	20d5      	movs	r0, #213	; 0xd5
 800166e:	f7ff ffb3 	bl	80015d8 <OLED_SendCmd>
 8001672:	20c0      	movs	r0, #192	; 0xc0
 8001674:	f7ff ffb0 	bl	80015d8 <OLED_SendCmd>
 8001678:	20d9      	movs	r0, #217	; 0xd9
 800167a:	f7ff ffad 	bl	80015d8 <OLED_SendCmd>
 800167e:	201f      	movs	r0, #31
 8001680:	f7ff ffaa 	bl	80015d8 <OLED_SendCmd>
 8001684:	20da      	movs	r0, #218	; 0xda
 8001686:	f7ff ffa7 	bl	80015d8 <OLED_SendCmd>
 800168a:	2012      	movs	r0, #18
 800168c:	f7ff ffa4 	bl	80015d8 <OLED_SendCmd>
 8001690:	20db      	movs	r0, #219	; 0xdb
 8001692:	f7ff ffa1 	bl	80015d8 <OLED_SendCmd>
 8001696:	2040      	movs	r0, #64	; 0x40
 8001698:	f7ff ff9e 	bl	80015d8 <OLED_SendCmd>
 800169c:	f000 f808 	bl	80016b0 <OLED_NewFrame>
 80016a0:	f000 f812 	bl	80016c8 <OLED_ShowFrame>
 80016a4:	20af      	movs	r0, #175	; 0xaf
 80016a6:	f7ff ff97 	bl	80015d8 <OLED_SendCmd>
 80016aa:	bf00      	nop
 80016ac:	bd80      	pop	{r7, pc}
	...

080016b0 <OLED_NewFrame>:
 80016b0:	b580      	push	{r7, lr}
 80016b2:	af00      	add	r7, sp, #0
 80016b4:	f44f 6280 	mov.w	r2, #1024	; 0x400
 80016b8:	2100      	movs	r1, #0
 80016ba:	4802      	ldr	r0, [pc, #8]	; (80016c4 <OLED_NewFrame+0x14>)
 80016bc:	f002 fdba 	bl	8004234 <memset>
 80016c0:	bf00      	nop
 80016c2:	bd80      	pop	{r7, pc}
 80016c4:	2000017c 	.word	0x2000017c

080016c8 <OLED_ShowFrame>:
 80016c8:	b580      	push	{r7, lr}
 80016ca:	b082      	sub	sp, #8
 80016cc:	af00      	add	r7, sp, #0
 80016ce:	4b15      	ldr	r3, [pc, #84]	; (8001724 <OLED_ShowFrame+0x5c>)
 80016d0:	2240      	movs	r2, #64	; 0x40
 80016d2:	701a      	strb	r2, [r3, #0]
 80016d4:	2300      	movs	r3, #0
 80016d6:	71fb      	strb	r3, [r7, #7]
 80016d8:	e01b      	b.n	8001712 <OLED_ShowFrame+0x4a>
 80016da:	79fb      	ldrb	r3, [r7, #7]
 80016dc:	3b50      	subs	r3, #80	; 0x50
 80016de:	b2db      	uxtb	r3, r3
 80016e0:	4618      	mov	r0, r3
 80016e2:	f7ff ff79 	bl	80015d8 <OLED_SendCmd>
 80016e6:	2002      	movs	r0, #2
 80016e8:	f7ff ff76 	bl	80015d8 <OLED_SendCmd>
 80016ec:	2010      	movs	r0, #16
 80016ee:	f7ff ff73 	bl	80015d8 <OLED_SendCmd>
 80016f2:	480d      	ldr	r0, [pc, #52]	; (8001728 <OLED_ShowFrame+0x60>)
 80016f4:	79fb      	ldrb	r3, [r7, #7]
 80016f6:	01db      	lsls	r3, r3, #7
 80016f8:	4a0c      	ldr	r2, [pc, #48]	; (800172c <OLED_ShowFrame+0x64>)
 80016fa:	4413      	add	r3, r2
 80016fc:	2280      	movs	r2, #128	; 0x80
 80016fe:	4619      	mov	r1, r3
 8001700:	f002 fd8d 	bl	800421e <memcpy>
 8001704:	2181      	movs	r1, #129	; 0x81
 8001706:	4807      	ldr	r0, [pc, #28]	; (8001724 <OLED_ShowFrame+0x5c>)
 8001708:	f7ff ff50 	bl	80015ac <Send>
 800170c:	79fb      	ldrb	r3, [r7, #7]
 800170e:	3301      	adds	r3, #1
 8001710:	71fb      	strb	r3, [r7, #7]
 8001712:	79fb      	ldrb	r3, [r7, #7]
 8001714:	2b07      	cmp	r3, #7
 8001716:	d9e0      	bls.n	80016da <OLED_ShowFrame+0x12>
 8001718:	bf00      	nop
 800171a:	bf00      	nop
 800171c:	3708      	adds	r7, #8
 800171e:	46bd      	mov	sp, r7
 8001720:	bd80      	pop	{r7, pc}
 8001722:	bf00      	nop
 8001724:	2000057c 	.word	0x2000057c
 8001728:	2000057d 	.word	0x2000057d
 800172c:	2000017c 	.word	0x2000017c

08001730 <OLED_SetPixel>:
 8001730:	b480      	push	{r7}
 8001732:	b083      	sub	sp, #12
 8001734:	af00      	add	r7, sp, #0
 8001736:	4603      	mov	r3, r0
 8001738:	71fb      	strb	r3, [r7, #7]
 800173a:	460b      	mov	r3, r1
 800173c:	71bb      	strb	r3, [r7, #6]
 800173e:	4613      	mov	r3, r2
 8001740:	717b      	strb	r3, [r7, #5]
 8001742:	f997 3007 	ldrsb.w	r3, [r7, #7]
 8001746:	2b00      	cmp	r3, #0
 8001748:	db43      	blt.n	80017d2 <OLED_SetPixel+0xa2>
 800174a:	79bb      	ldrb	r3, [r7, #6]
 800174c:	2b3f      	cmp	r3, #63	; 0x3f
 800174e:	d840      	bhi.n	80017d2 <OLED_SetPixel+0xa2>
 8001750:	797b      	ldrb	r3, [r7, #5]
 8001752:	2b00      	cmp	r3, #0
 8001754:	d11d      	bne.n	8001792 <OLED_SetPixel+0x62>
 8001756:	79bb      	ldrb	r3, [r7, #6]
 8001758:	08db      	lsrs	r3, r3, #3
 800175a:	b2d8      	uxtb	r0, r3
 800175c:	4602      	mov	r2, r0
 800175e:	79fb      	ldrb	r3, [r7, #7]
 8001760:	491e      	ldr	r1, [pc, #120]	; (80017dc <OLED_SetPixel+0xac>)
 8001762:	01d2      	lsls	r2, r2, #7
 8001764:	440a      	add	r2, r1
 8001766:	4413      	add	r3, r2
 8001768:	781b      	ldrb	r3, [r3, #0]
 800176a:	b25a      	sxtb	r2, r3
 800176c:	79bb      	ldrb	r3, [r7, #6]
 800176e:	f003 0307 	and.w	r3, r3, #7
 8001772:	2101      	movs	r1, #1
 8001774:	fa01 f303 	lsl.w	r3, r1, r3
 8001778:	b25b      	sxtb	r3, r3
 800177a:	4313      	orrs	r3, r2
 800177c:	b259      	sxtb	r1, r3
 800177e:	4602      	mov	r2, r0
 8001780:	79fb      	ldrb	r3, [r7, #7]
 8001782:	b2c8      	uxtb	r0, r1
 8001784:	4915      	ldr	r1, [pc, #84]	; (80017dc <OLED_SetPixel+0xac>)
 8001786:	01d2      	lsls	r2, r2, #7
 8001788:	440a      	add	r2, r1
 800178a:	4413      	add	r3, r2
 800178c:	4602      	mov	r2, r0
 800178e:	701a      	strb	r2, [r3, #0]
 8001790:	e020      	b.n	80017d4 <OLED_SetPixel+0xa4>
 8001792:	79bb      	ldrb	r3, [r7, #6]
 8001794:	08db      	lsrs	r3, r3, #3
 8001796:	b2d8      	uxtb	r0, r3
 8001798:	4602      	mov	r2, r0
 800179a:	79fb      	ldrb	r3, [r7, #7]
 800179c:	490f      	ldr	r1, [pc, #60]	; (80017dc <OLED_SetPixel+0xac>)
 800179e:	01d2      	lsls	r2, r2, #7
 80017a0:	440a      	add	r2, r1
 80017a2:	4413      	add	r3, r2
 80017a4:	781b      	ldrb	r3, [r3, #0]
 80017a6:	b25a      	sxtb	r2, r3
 80017a8:	79bb      	ldrb	r3, [r7, #6]
 80017aa:	f003 0307 	and.w	r3, r3, #7
 80017ae:	2101      	movs	r1, #1
 80017b0:	fa01 f303 	lsl.w	r3, r1, r3
 80017b4:	b25b      	sxtb	r3, r3
 80017b6:	43db      	mvns	r3, r3
 80017b8:	b25b      	sxtb	r3, r3
 80017ba:	4013      	ands	r3, r2
 80017bc:	b259      	sxtb	r1, r3
 80017be:	4602      	mov	r2, r0
 80017c0:	79fb      	ldrb	r3, [r7, #7]
 80017c2:	b2c8      	uxtb	r0, r1
 80017c4:	4905      	ldr	r1, [pc, #20]	; (80017dc <OLED_SetPixel+0xac>)
 80017c6:	01d2      	lsls	r2, r2, #7
 80017c8:	440a      	add	r2, r1
 80017ca:	4413      	add	r3, r2
 80017cc:	4602      	mov	r2, r0
 80017ce:	701a      	strb	r2, [r3, #0]
 80017d0:	e000      	b.n	80017d4 <OLED_SetPixel+0xa4>
 80017d2:	bf00      	nop
 80017d4:	370c      	adds	r7, #12
 80017d6:	46bd      	mov	sp, r7
 80017d8:	bc80      	pop	{r7}
 80017da:	4770      	bx	lr
 80017dc:	2000017c 	.word	0x2000017c

080017e0 <OLED_SetByte_Fine>:
 80017e0:	b490      	push	{r4, r7}
 80017e2:	b082      	sub	sp, #8
 80017e4:	af00      	add	r7, sp, #0
 80017e6:	4604      	mov	r4, r0
 80017e8:	4608      	mov	r0, r1
 80017ea:	4611      	mov	r1, r2
 80017ec:	461a      	mov	r2, r3
 80017ee:	4623      	mov	r3, r4
 80017f0:	71fb      	strb	r3, [r7, #7]
 80017f2:	4603      	mov	r3, r0
 80017f4:	71bb      	strb	r3, [r7, #6]
 80017f6:	460b      	mov	r3, r1
 80017f8:	717b      	strb	r3, [r7, #5]
 80017fa:	4613      	mov	r3, r2
 80017fc:	713b      	strb	r3, [r7, #4]
 80017fe:	79fb      	ldrb	r3, [r7, #7]
 8001800:	2b07      	cmp	r3, #7
 8001802:	d85f      	bhi.n	80018c4 <OLED_SetByte_Fine+0xe4>
 8001804:	f997 3006 	ldrsb.w	r3, [r7, #6]
 8001808:	2b00      	cmp	r3, #0
 800180a:	db5b      	blt.n	80018c4 <OLED_SetByte_Fine+0xe4>
 800180c:	7d3b      	ldrb	r3, [r7, #20]
 800180e:	2b00      	cmp	r3, #0
 8001810:	d002      	beq.n	8001818 <OLED_SetByte_Fine+0x38>
 8001812:	797b      	ldrb	r3, [r7, #5]
 8001814:	43db      	mvns	r3, r3
 8001816:	717b      	strb	r3, [r7, #5]
 8001818:	7c3b      	ldrb	r3, [r7, #16]
 800181a:	3301      	adds	r3, #1
 800181c:	22ff      	movs	r2, #255	; 0xff
 800181e:	fa02 f303 	lsl.w	r3, r2, r3
 8001822:	b25a      	sxtb	r2, r3
 8001824:	f997 3005 	ldrsb.w	r3, [r7, #5]
 8001828:	4313      	orrs	r3, r2
 800182a:	b25a      	sxtb	r2, r3
 800182c:	793b      	ldrb	r3, [r7, #4]
 800182e:	f1c3 0308 	rsb	r3, r3, #8
 8001832:	21ff      	movs	r1, #255	; 0xff
 8001834:	fa41 f303 	asr.w	r3, r1, r3
 8001838:	b25b      	sxtb	r3, r3
 800183a:	4313      	orrs	r3, r2
 800183c:	b25b      	sxtb	r3, r3
 800183e:	b2da      	uxtb	r2, r3
 8001840:	4b23      	ldr	r3, [pc, #140]	; (80018d0 <OLED_SetByte_Fine+0xf0>)
 8001842:	701a      	strb	r2, [r3, #0]
 8001844:	79fa      	ldrb	r2, [r7, #7]
 8001846:	79bb      	ldrb	r3, [r7, #6]
 8001848:	4922      	ldr	r1, [pc, #136]	; (80018d4 <OLED_SetByte_Fine+0xf4>)
 800184a:	01d2      	lsls	r2, r2, #7
 800184c:	440a      	add	r2, r1
 800184e:	4413      	add	r3, r2
 8001850:	7818      	ldrb	r0, [r3, #0]
 8001852:	4b1f      	ldr	r3, [pc, #124]	; (80018d0 <OLED_SetByte_Fine+0xf0>)
 8001854:	7819      	ldrb	r1, [r3, #0]
 8001856:	79fa      	ldrb	r2, [r7, #7]
 8001858:	79bb      	ldrb	r3, [r7, #6]
 800185a:	4001      	ands	r1, r0
 800185c:	b2c8      	uxtb	r0, r1
 800185e:	491d      	ldr	r1, [pc, #116]	; (80018d4 <OLED_SetByte_Fine+0xf4>)
 8001860:	01d2      	lsls	r2, r2, #7
 8001862:	440a      	add	r2, r1
 8001864:	4413      	add	r3, r2
 8001866:	4602      	mov	r2, r0
 8001868:	701a      	strb	r2, [r3, #0]
 800186a:	7c3b      	ldrb	r3, [r7, #16]
 800186c:	3301      	adds	r3, #1
 800186e:	22ff      	movs	r2, #255	; 0xff
 8001870:	fa02 f303 	lsl.w	r3, r2, r3
 8001874:	b25b      	sxtb	r3, r3
 8001876:	43db      	mvns	r3, r3
 8001878:	b25a      	sxtb	r2, r3
 800187a:	f997 3005 	ldrsb.w	r3, [r7, #5]
 800187e:	4013      	ands	r3, r2
 8001880:	b25a      	sxtb	r2, r3
 8001882:	793b      	ldrb	r3, [r7, #4]
 8001884:	f1c3 0308 	rsb	r3, r3, #8
 8001888:	f06f 01ff 	mvn.w	r1, #255	; 0xff
 800188c:	fa41 f303 	asr.w	r3, r1, r3
 8001890:	b25b      	sxtb	r3, r3
 8001892:	4013      	ands	r3, r2
 8001894:	b25b      	sxtb	r3, r3
 8001896:	b2da      	uxtb	r2, r3
 8001898:	4b0d      	ldr	r3, [pc, #52]	; (80018d0 <OLED_SetByte_Fine+0xf0>)
 800189a:	701a      	strb	r2, [r3, #0]
 800189c:	79fa      	ldrb	r2, [r7, #7]
 800189e:	79bb      	ldrb	r3, [r7, #6]
 80018a0:	490c      	ldr	r1, [pc, #48]	; (80018d4 <OLED_SetByte_Fine+0xf4>)
 80018a2:	01d2      	lsls	r2, r2, #7
 80018a4:	440a      	add	r2, r1
 80018a6:	4413      	add	r3, r2
 80018a8:	7818      	ldrb	r0, [r3, #0]
 80018aa:	4b09      	ldr	r3, [pc, #36]	; (80018d0 <OLED_SetByte_Fine+0xf0>)
 80018ac:	7819      	ldrb	r1, [r3, #0]
 80018ae:	79fa      	ldrb	r2, [r7, #7]
 80018b0:	79bb      	ldrb	r3, [r7, #6]
 80018b2:	4301      	orrs	r1, r0
 80018b4:	b2c8      	uxtb	r0, r1
 80018b6:	4907      	ldr	r1, [pc, #28]	; (80018d4 <OLED_SetByte_Fine+0xf4>)
 80018b8:	01d2      	lsls	r2, r2, #7
 80018ba:	440a      	add	r2, r1
 80018bc:	4413      	add	r3, r2
 80018be:	4602      	mov	r2, r0
 80018c0:	701a      	strb	r2, [r3, #0]
 80018c2:	e000      	b.n	80018c6 <OLED_SetByte_Fine+0xe6>
 80018c4:	bf00      	nop
 80018c6:	3708      	adds	r7, #8
 80018c8:	46bd      	mov	sp, r7
 80018ca:	bc90      	pop	{r4, r7}
 80018cc:	4770      	bx	lr
 80018ce:	bf00      	nop
 80018d0:	200005fd 	.word	0x200005fd
 80018d4:	2000017c 	.word	0x2000017c

080018d8 <OLED_SetBits_Fine>:
 80018d8:	b5b0      	push	{r4, r5, r7, lr}
 80018da:	b086      	sub	sp, #24
 80018dc:	af02      	add	r7, sp, #8
 80018de:	4604      	mov	r4, r0
 80018e0:	4608      	mov	r0, r1
 80018e2:	4611      	mov	r1, r2
 80018e4:	461a      	mov	r2, r3
 80018e6:	4623      	mov	r3, r4
 80018e8:	71fb      	strb	r3, [r7, #7]
 80018ea:	4603      	mov	r3, r0
 80018ec:	71bb      	strb	r3, [r7, #6]
 80018ee:	460b      	mov	r3, r1
 80018f0:	717b      	strb	r3, [r7, #5]
 80018f2:	4613      	mov	r3, r2
 80018f4:	713b      	strb	r3, [r7, #4]
 80018f6:	79bb      	ldrb	r3, [r7, #6]
 80018f8:	08db      	lsrs	r3, r3, #3
 80018fa:	73fb      	strb	r3, [r7, #15]
 80018fc:	79bb      	ldrb	r3, [r7, #6]
 80018fe:	f003 0307 	and.w	r3, r3, #7
 8001902:	73bb      	strb	r3, [r7, #14]
 8001904:	7bba      	ldrb	r2, [r7, #14]
 8001906:	793b      	ldrb	r3, [r7, #4]
 8001908:	4413      	add	r3, r2
 800190a:	2b08      	cmp	r3, #8
 800190c:	dd29      	ble.n	8001962 <OLED_SetBits_Fine+0x8a>
 800190e:	797a      	ldrb	r2, [r7, #5]
 8001910:	7bbb      	ldrb	r3, [r7, #14]
 8001912:	fa02 f303 	lsl.w	r3, r2, r3
 8001916:	b2da      	uxtb	r2, r3
 8001918:	7bbc      	ldrb	r4, [r7, #14]
 800191a:	79f9      	ldrb	r1, [r7, #7]
 800191c:	7bf8      	ldrb	r0, [r7, #15]
 800191e:	f897 3020 	ldrb.w	r3, [r7, #32]
 8001922:	9301      	str	r3, [sp, #4]
 8001924:	2307      	movs	r3, #7
 8001926:	9300      	str	r3, [sp, #0]
 8001928:	4623      	mov	r3, r4
 800192a:	f7ff ff59 	bl	80017e0 <OLED_SetByte_Fine>
 800192e:	7bfb      	ldrb	r3, [r7, #15]
 8001930:	3301      	adds	r3, #1
 8001932:	b2d8      	uxtb	r0, r3
 8001934:	797a      	ldrb	r2, [r7, #5]
 8001936:	7bbb      	ldrb	r3, [r7, #14]
 8001938:	f1c3 0308 	rsb	r3, r3, #8
 800193c:	fa42 f303 	asr.w	r3, r2, r3
 8001940:	b2dc      	uxtb	r4, r3
 8001942:	793a      	ldrb	r2, [r7, #4]
 8001944:	7bbb      	ldrb	r3, [r7, #14]
 8001946:	4413      	add	r3, r2
 8001948:	b2db      	uxtb	r3, r3
 800194a:	3b09      	subs	r3, #9
 800194c:	b2db      	uxtb	r3, r3
 800194e:	79f9      	ldrb	r1, [r7, #7]
 8001950:	f897 2020 	ldrb.w	r2, [r7, #32]
 8001954:	9201      	str	r2, [sp, #4]
 8001956:	9300      	str	r3, [sp, #0]
 8001958:	2300      	movs	r3, #0
 800195a:	4622      	mov	r2, r4
 800195c:	f7ff ff40 	bl	80017e0 <OLED_SetByte_Fine>
 8001960:	e015      	b.n	800198e <OLED_SetBits_Fine+0xb6>
 8001962:	797a      	ldrb	r2, [r7, #5]
 8001964:	7bbb      	ldrb	r3, [r7, #14]
 8001966:	fa02 f303 	lsl.w	r3, r2, r3
 800196a:	b2dc      	uxtb	r4, r3
 800196c:	7bba      	ldrb	r2, [r7, #14]
 800196e:	793b      	ldrb	r3, [r7, #4]
 8001970:	4413      	add	r3, r2
 8001972:	b2db      	uxtb	r3, r3
 8001974:	3b01      	subs	r3, #1
 8001976:	b2db      	uxtb	r3, r3
 8001978:	7bbd      	ldrb	r5, [r7, #14]
 800197a:	79f9      	ldrb	r1, [r7, #7]
 800197c:	7bf8      	ldrb	r0, [r7, #15]
 800197e:	f897 2020 	ldrb.w	r2, [r7, #32]
 8001982:	9201      	str	r2, [sp, #4]
 8001984:	9300      	str	r3, [sp, #0]
 8001986:	462b      	mov	r3, r5
 8001988:	4622      	mov	r2, r4
 800198a:	f7ff ff29 	bl	80017e0 <OLED_SetByte_Fine>
 800198e:	bf00      	nop
 8001990:	3710      	adds	r7, #16
 8001992:	46bd      	mov	sp, r7
 8001994:	bdb0      	pop	{r4, r5, r7, pc}

08001996 <OLED_SetBits>:
 8001996:	b590      	push	{r4, r7, lr}
 8001998:	b087      	sub	sp, #28
 800199a:	af02      	add	r7, sp, #8
 800199c:	4604      	mov	r4, r0
 800199e:	4608      	mov	r0, r1
 80019a0:	4611      	mov	r1, r2
 80019a2:	461a      	mov	r2, r3
 80019a4:	4623      	mov	r3, r4
 80019a6:	71fb      	strb	r3, [r7, #7]
 80019a8:	4603      	mov	r3, r0
 80019aa:	71bb      	strb	r3, [r7, #6]
 80019ac:	460b      	mov	r3, r1
 80019ae:	717b      	strb	r3, [r7, #5]
 80019b0:	4613      	mov	r3, r2
 80019b2:	713b      	strb	r3, [r7, #4]
 80019b4:	79bb      	ldrb	r3, [r7, #6]
 80019b6:	08db      	lsrs	r3, r3, #3
 80019b8:	73fb      	strb	r3, [r7, #15]
 80019ba:	79bb      	ldrb	r3, [r7, #6]
 80019bc:	f003 0307 	and.w	r3, r3, #7
 80019c0:	73bb      	strb	r3, [r7, #14]
 80019c2:	797a      	ldrb	r2, [r7, #5]
 80019c4:	7bbb      	ldrb	r3, [r7, #14]
 80019c6:	fa02 f303 	lsl.w	r3, r2, r3
 80019ca:	b2da      	uxtb	r2, r3
 80019cc:	7bbc      	ldrb	r4, [r7, #14]
 80019ce:	79f9      	ldrb	r1, [r7, #7]
 80019d0:	7bf8      	ldrb	r0, [r7, #15]
 80019d2:	793b      	ldrb	r3, [r7, #4]
 80019d4:	9301      	str	r3, [sp, #4]
 80019d6:	2307      	movs	r3, #7
 80019d8:	9300      	str	r3, [sp, #0]
 80019da:	4623      	mov	r3, r4
 80019dc:	f7ff ff00 	bl	80017e0 <OLED_SetByte_Fine>
 80019e0:	7bbb      	ldrb	r3, [r7, #14]
 80019e2:	2b00      	cmp	r3, #0
 80019e4:	d014      	beq.n	8001a10 <OLED_SetBits+0x7a>
 80019e6:	7bfb      	ldrb	r3, [r7, #15]
 80019e8:	3301      	adds	r3, #1
 80019ea:	b2d8      	uxtb	r0, r3
 80019ec:	797a      	ldrb	r2, [r7, #5]
 80019ee:	7bbb      	ldrb	r3, [r7, #14]
 80019f0:	f1c3 0308 	rsb	r3, r3, #8
 80019f4:	fa42 f303 	asr.w	r3, r2, r3
 80019f8:	b2dc      	uxtb	r4, r3
 80019fa:	7bbb      	ldrb	r3, [r7, #14]
 80019fc:	3b01      	subs	r3, #1
 80019fe:	b2db      	uxtb	r3, r3
 8001a00:	79f9      	ldrb	r1, [r7, #7]
 8001a02:	793a      	ldrb	r2, [r7, #4]
 8001a04:	9201      	str	r2, [sp, #4]
 8001a06:	9300      	str	r3, [sp, #0]
 8001a08:	2300      	movs	r3, #0
 8001a0a:	4622      	mov	r2, r4
 8001a0c:	f7ff fee8 	bl	80017e0 <OLED_SetByte_Fine>
 8001a10:	bf00      	nop
 8001a12:	3714      	adds	r7, #20
 8001a14:	46bd      	mov	sp, r7
 8001a16:	bd90      	pop	{r4, r7, pc}

08001a18 <OLED_SetBlock>:
 8001a18:	b590      	push	{r4, r7, lr}
 8001a1a:	b087      	sub	sp, #28
 8001a1c:	af02      	add	r7, sp, #8
 8001a1e:	603a      	str	r2, [r7, #0]
 8001a20:	461a      	mov	r2, r3
 8001a22:	4603      	mov	r3, r0
 8001a24:	71fb      	strb	r3, [r7, #7]
 8001a26:	460b      	mov	r3, r1
 8001a28:	71bb      	strb	r3, [r7, #6]
 8001a2a:	4613      	mov	r3, r2
 8001a2c:	717b      	strb	r3, [r7, #5]
 8001a2e:	f897 3020 	ldrb.w	r3, [r7, #32]
 8001a32:	08db      	lsrs	r3, r3, #3
 8001a34:	733b      	strb	r3, [r7, #12]
 8001a36:	f897 3020 	ldrb.w	r3, [r7, #32]
 8001a3a:	f003 0307 	and.w	r3, r3, #7
 8001a3e:	72fb      	strb	r3, [r7, #11]
 8001a40:	2300      	movs	r3, #0
 8001a42:	73fb      	strb	r3, [r7, #15]
 8001a44:	e025      	b.n	8001a92 <OLED_SetBlock+0x7a>
 8001a46:	2300      	movs	r3, #0
 8001a48:	73bb      	strb	r3, [r7, #14]
 8001a4a:	e01b      	b.n	8001a84 <OLED_SetBlock+0x6c>
 8001a4c:	79fa      	ldrb	r2, [r7, #7]
 8001a4e:	7bfb      	ldrb	r3, [r7, #15]
 8001a50:	4413      	add	r3, r2
 8001a52:	b2d8      	uxtb	r0, r3
 8001a54:	7bbb      	ldrb	r3, [r7, #14]
 8001a56:	00db      	lsls	r3, r3, #3
 8001a58:	b2da      	uxtb	r2, r3
 8001a5a:	79bb      	ldrb	r3, [r7, #6]
 8001a5c:	4413      	add	r3, r2
 8001a5e:	b2dc      	uxtb	r4, r3
 8001a60:	7bfa      	ldrb	r2, [r7, #15]
 8001a62:	7bbb      	ldrb	r3, [r7, #14]
 8001a64:	7979      	ldrb	r1, [r7, #5]
 8001a66:	fb01 f303 	mul.w	r3, r1, r3
 8001a6a:	4413      	add	r3, r2
 8001a6c:	461a      	mov	r2, r3
 8001a6e:	683b      	ldr	r3, [r7, #0]
 8001a70:	4413      	add	r3, r2
 8001a72:	781a      	ldrb	r2, [r3, #0]
 8001a74:	f897 3024 	ldrb.w	r3, [r7, #36]	; 0x24
 8001a78:	4621      	mov	r1, r4
 8001a7a:	f7ff ff8c 	bl	8001996 <OLED_SetBits>
 8001a7e:	7bbb      	ldrb	r3, [r7, #14]
 8001a80:	3301      	adds	r3, #1
 8001a82:	73bb      	strb	r3, [r7, #14]
 8001a84:	7bba      	ldrb	r2, [r7, #14]
 8001a86:	7b3b      	ldrb	r3, [r7, #12]
 8001a88:	429a      	cmp	r2, r3
 8001a8a:	d3df      	bcc.n	8001a4c <OLED_SetBlock+0x34>
 8001a8c:	7bfb      	ldrb	r3, [r7, #15]
 8001a8e:	3301      	adds	r3, #1
 8001a90:	73fb      	strb	r3, [r7, #15]
 8001a92:	7bfa      	ldrb	r2, [r7, #15]
 8001a94:	797b      	ldrb	r3, [r7, #5]
 8001a96:	429a      	cmp	r2, r3
 8001a98:	d3d5      	bcc.n	8001a46 <OLED_SetBlock+0x2e>
 8001a9a:	7afb      	ldrb	r3, [r7, #11]
 8001a9c:	2b00      	cmp	r3, #0
 8001a9e:	d028      	beq.n	8001af2 <OLED_SetBlock+0xda>
 8001aa0:	797b      	ldrb	r3, [r7, #5]
 8001aa2:	b29b      	uxth	r3, r3
 8001aa4:	7b3a      	ldrb	r2, [r7, #12]
 8001aa6:	b292      	uxth	r2, r2
 8001aa8:	fb02 f303 	mul.w	r3, r2, r3
 8001aac:	813b      	strh	r3, [r7, #8]
 8001aae:	2300      	movs	r3, #0
 8001ab0:	737b      	strb	r3, [r7, #13]
 8001ab2:	e01a      	b.n	8001aea <OLED_SetBlock+0xd2>
 8001ab4:	79fa      	ldrb	r2, [r7, #7]
 8001ab6:	7b7b      	ldrb	r3, [r7, #13]
 8001ab8:	4413      	add	r3, r2
 8001aba:	b2d8      	uxtb	r0, r3
 8001abc:	7b3b      	ldrb	r3, [r7, #12]
 8001abe:	00db      	lsls	r3, r3, #3
 8001ac0:	b2da      	uxtb	r2, r3
 8001ac2:	79bb      	ldrb	r3, [r7, #6]
 8001ac4:	4413      	add	r3, r2
 8001ac6:	b2d9      	uxtb	r1, r3
 8001ac8:	893a      	ldrh	r2, [r7, #8]
 8001aca:	7b7b      	ldrb	r3, [r7, #13]
 8001acc:	4413      	add	r3, r2
 8001ace:	461a      	mov	r2, r3
 8001ad0:	683b      	ldr	r3, [r7, #0]
 8001ad2:	4413      	add	r3, r2
 8001ad4:	781a      	ldrb	r2, [r3, #0]
 8001ad6:	7afc      	ldrb	r4, [r7, #11]
 8001ad8:	f897 3024 	ldrb.w	r3, [r7, #36]	; 0x24
 8001adc:	9300      	str	r3, [sp, #0]
 8001ade:	4623      	mov	r3, r4
 8001ae0:	f7ff fefa 	bl	80018d8 <OLED_SetBits_Fine>
 8001ae4:	7b7b      	ldrb	r3, [r7, #13]
 8001ae6:	3301      	adds	r3, #1
 8001ae8:	737b      	strb	r3, [r7, #13]
 8001aea:	7b7a      	ldrb	r2, [r7, #13]
 8001aec:	797b      	ldrb	r3, [r7, #5]
 8001aee:	429a      	cmp	r2, r3
 8001af0:	d3e0      	bcc.n	8001ab4 <OLED_SetBlock+0x9c>
 8001af2:	bf00      	nop
 8001af4:	3714      	adds	r7, #20
 8001af6:	46bd      	mov	sp, r7
 8001af8:	bd90      	pop	{r4, r7, pc}
	...

08001afc <OLED_DrawLine>:
 8001afc:	b590      	push	{r4, r7, lr}
 8001afe:	b087      	sub	sp, #28
 8001b00:	af00      	add	r7, sp, #0
 8001b02:	4604      	mov	r4, r0
 8001b04:	4608      	mov	r0, r1
 8001b06:	4611      	mov	r1, r2
 8001b08:	461a      	mov	r2, r3
 8001b0a:	4623      	mov	r3, r4
 8001b0c:	71fb      	strb	r3, [r7, #7]
 8001b0e:	4603      	mov	r3, r0
 8001b10:	71bb      	strb	r3, [r7, #6]
 8001b12:	460b      	mov	r3, r1
 8001b14:	717b      	strb	r3, [r7, #5]
 8001b16:	4613      	mov	r3, r2
 8001b18:	713b      	strb	r3, [r7, #4]
 8001b1a:	79fa      	ldrb	r2, [r7, #7]
 8001b1c:	797b      	ldrb	r3, [r7, #5]
 8001b1e:	429a      	cmp	r2, r3
 8001b20:	d11d      	bne.n	8001b5e <OLED_DrawLine+0x62>
 8001b22:	79ba      	ldrb	r2, [r7, #6]
 8001b24:	793b      	ldrb	r3, [r7, #4]
 8001b26:	429a      	cmp	r2, r3
 8001b28:	d907      	bls.n	8001b3a <OLED_DrawLine+0x3e>
 8001b2a:	4a69      	ldr	r2, [pc, #420]	; (8001cd0 <OLED_DrawLine+0x1d4>)
 8001b2c:	79bb      	ldrb	r3, [r7, #6]
 8001b2e:	7013      	strb	r3, [r2, #0]
 8001b30:	793b      	ldrb	r3, [r7, #4]
 8001b32:	71bb      	strb	r3, [r7, #6]
 8001b34:	4b66      	ldr	r3, [pc, #408]	; (8001cd0 <OLED_DrawLine+0x1d4>)
 8001b36:	781b      	ldrb	r3, [r3, #0]
 8001b38:	713b      	strb	r3, [r7, #4]
 8001b3a:	79bb      	ldrb	r3, [r7, #6]
 8001b3c:	75fb      	strb	r3, [r7, #23]
 8001b3e:	e009      	b.n	8001b54 <OLED_DrawLine+0x58>
 8001b40:	f897 2028 	ldrb.w	r2, [r7, #40]	; 0x28
 8001b44:	7df9      	ldrb	r1, [r7, #23]
 8001b46:	79fb      	ldrb	r3, [r7, #7]
 8001b48:	4618      	mov	r0, r3
 8001b4a:	f7ff fdf1 	bl	8001730 <OLED_SetPixel>
 8001b4e:	7dfb      	ldrb	r3, [r7, #23]
 8001b50:	3301      	adds	r3, #1
 8001b52:	75fb      	strb	r3, [r7, #23]
 8001b54:	7dfa      	ldrb	r2, [r7, #23]
 8001b56:	793b      	ldrb	r3, [r7, #4]
 8001b58:	429a      	cmp	r2, r3
 8001b5a:	d9f1      	bls.n	8001b40 <OLED_DrawLine+0x44>
 8001b5c:	e0b4      	b.n	8001cc8 <OLED_DrawLine+0x1cc>
 8001b5e:	79ba      	ldrb	r2, [r7, #6]
 8001b60:	793b      	ldrb	r3, [r7, #4]
 8001b62:	429a      	cmp	r2, r3
 8001b64:	d11d      	bne.n	8001ba2 <OLED_DrawLine+0xa6>
 8001b66:	79fa      	ldrb	r2, [r7, #7]
 8001b68:	797b      	ldrb	r3, [r7, #5]
 8001b6a:	429a      	cmp	r2, r3
 8001b6c:	d907      	bls.n	8001b7e <OLED_DrawLine+0x82>
 8001b6e:	4a58      	ldr	r2, [pc, #352]	; (8001cd0 <OLED_DrawLine+0x1d4>)
 8001b70:	79fb      	ldrb	r3, [r7, #7]
 8001b72:	7013      	strb	r3, [r2, #0]
 8001b74:	797b      	ldrb	r3, [r7, #5]
 8001b76:	71fb      	strb	r3, [r7, #7]
 8001b78:	4b55      	ldr	r3, [pc, #340]	; (8001cd0 <OLED_DrawLine+0x1d4>)
 8001b7a:	781b      	ldrb	r3, [r3, #0]
 8001b7c:	717b      	strb	r3, [r7, #5]
 8001b7e:	79fb      	ldrb	r3, [r7, #7]
 8001b80:	75bb      	strb	r3, [r7, #22]
 8001b82:	e009      	b.n	8001b98 <OLED_DrawLine+0x9c>
 8001b84:	f897 2028 	ldrb.w	r2, [r7, #40]	; 0x28
 8001b88:	79b9      	ldrb	r1, [r7, #6]
 8001b8a:	7dbb      	ldrb	r3, [r7, #22]
 8001b8c:	4618      	mov	r0, r3
 8001b8e:	f7ff fdcf 	bl	8001730 <OLED_SetPixel>
 8001b92:	7dbb      	ldrb	r3, [r7, #22]
 8001b94:	3301      	adds	r3, #1
 8001b96:	75bb      	strb	r3, [r7, #22]
 8001b98:	7dba      	ldrb	r2, [r7, #22]
 8001b9a:	797b      	ldrb	r3, [r7, #5]
 8001b9c:	429a      	cmp	r2, r3
 8001b9e:	d9f1      	bls.n	8001b84 <OLED_DrawLine+0x88>
 8001ba0:	e092      	b.n	8001cc8 <OLED_DrawLine+0x1cc>
 8001ba2:	797b      	ldrb	r3, [r7, #5]
 8001ba4:	b29a      	uxth	r2, r3
 8001ba6:	79fb      	ldrb	r3, [r7, #7]
 8001ba8:	b29b      	uxth	r3, r3
 8001baa:	1ad3      	subs	r3, r2, r3
 8001bac:	b29b      	uxth	r3, r3
 8001bae:	81fb      	strh	r3, [r7, #14]
 8001bb0:	793b      	ldrb	r3, [r7, #4]
 8001bb2:	b29a      	uxth	r2, r3
 8001bb4:	79bb      	ldrb	r3, [r7, #6]
 8001bb6:	b29b      	uxth	r3, r3
 8001bb8:	1ad3      	subs	r3, r2, r3
 8001bba:	b29b      	uxth	r3, r3
 8001bbc:	81bb      	strh	r3, [r7, #12]
 8001bbe:	f9b7 300e 	ldrsh.w	r3, [r7, #14]
 8001bc2:	2b00      	cmp	r3, #0
 8001bc4:	dd01      	ble.n	8001bca <OLED_DrawLine+0xce>
 8001bc6:	2301      	movs	r3, #1
 8001bc8:	e001      	b.n	8001bce <OLED_DrawLine+0xd2>
 8001bca:	f04f 33ff 	mov.w	r3, #4294967295
 8001bce:	817b      	strh	r3, [r7, #10]
 8001bd0:	f9b7 300c 	ldrsh.w	r3, [r7, #12]
 8001bd4:	2b00      	cmp	r3, #0
 8001bd6:	dd01      	ble.n	8001bdc <OLED_DrawLine+0xe0>
 8001bd8:	2301      	movs	r3, #1
 8001bda:	e001      	b.n	8001be0 <OLED_DrawLine+0xe4>
 8001bdc:	f04f 33ff 	mov.w	r3, #4294967295
 8001be0:	813b      	strh	r3, [r7, #8]
 8001be2:	79fb      	ldrb	r3, [r7, #7]
 8001be4:	82bb      	strh	r3, [r7, #20]
 8001be6:	79bb      	ldrb	r3, [r7, #6]
 8001be8:	827b      	strh	r3, [r7, #18]
 8001bea:	2300      	movs	r3, #0
 8001bec:	823b      	strh	r3, [r7, #16]
 8001bee:	f9b7 300e 	ldrsh.w	r3, [r7, #14]
 8001bf2:	2b00      	cmp	r3, #0
 8001bf4:	bfb8      	it	lt
 8001bf6:	425b      	neglt	r3, r3
 8001bf8:	b29b      	uxth	r3, r3
 8001bfa:	81fb      	strh	r3, [r7, #14]
 8001bfc:	f9b7 300c 	ldrsh.w	r3, [r7, #12]
 8001c00:	2b00      	cmp	r3, #0
 8001c02:	bfb8      	it	lt
 8001c04:	425b      	neglt	r3, r3
 8001c06:	b29b      	uxth	r3, r3
 8001c08:	81bb      	strh	r3, [r7, #12]
 8001c0a:	f9b7 200e 	ldrsh.w	r2, [r7, #14]
 8001c0e:	f9b7 300c 	ldrsh.w	r3, [r7, #12]
 8001c12:	429a      	cmp	r2, r3
 8001c14:	dd2c      	ble.n	8001c70 <OLED_DrawLine+0x174>
 8001c16:	79fb      	ldrb	r3, [r7, #7]
 8001c18:	82bb      	strh	r3, [r7, #20]
 8001c1a:	e023      	b.n	8001c64 <OLED_DrawLine+0x168>
 8001c1c:	8abb      	ldrh	r3, [r7, #20]
 8001c1e:	b2db      	uxtb	r3, r3
 8001c20:	8a7a      	ldrh	r2, [r7, #18]
 8001c22:	b2d1      	uxtb	r1, r2
 8001c24:	f897 2028 	ldrb.w	r2, [r7, #40]	; 0x28
 8001c28:	4618      	mov	r0, r3
 8001c2a:	f7ff fd81 	bl	8001730 <OLED_SetPixel>
 8001c2e:	8a3a      	ldrh	r2, [r7, #16]
 8001c30:	89bb      	ldrh	r3, [r7, #12]
 8001c32:	4413      	add	r3, r2
 8001c34:	b29b      	uxth	r3, r3
 8001c36:	823b      	strh	r3, [r7, #16]
 8001c38:	f9b7 3010 	ldrsh.w	r3, [r7, #16]
 8001c3c:	005a      	lsls	r2, r3, #1
 8001c3e:	f9b7 300e 	ldrsh.w	r3, [r7, #14]
 8001c42:	429a      	cmp	r2, r3
 8001c44:	db09      	blt.n	8001c5a <OLED_DrawLine+0x15e>
 8001c46:	8a7a      	ldrh	r2, [r7, #18]
 8001c48:	893b      	ldrh	r3, [r7, #8]
 8001c4a:	4413      	add	r3, r2
 8001c4c:	b29b      	uxth	r3, r3
 8001c4e:	827b      	strh	r3, [r7, #18]
 8001c50:	8a3a      	ldrh	r2, [r7, #16]
 8001c52:	89fb      	ldrh	r3, [r7, #14]
 8001c54:	1ad3      	subs	r3, r2, r3
 8001c56:	b29b      	uxth	r3, r3
 8001c58:	823b      	strh	r3, [r7, #16]
 8001c5a:	8aba      	ldrh	r2, [r7, #20]
 8001c5c:	897b      	ldrh	r3, [r7, #10]
 8001c5e:	4413      	add	r3, r2
 8001c60:	b29b      	uxth	r3, r3
 8001c62:	82bb      	strh	r3, [r7, #20]
 8001c64:	f9b7 2014 	ldrsh.w	r2, [r7, #20]
 8001c68:	797b      	ldrb	r3, [r7, #5]
 8001c6a:	429a      	cmp	r2, r3
 8001c6c:	d1d6      	bne.n	8001c1c <OLED_DrawLine+0x120>
 8001c6e:	e02b      	b.n	8001cc8 <OLED_DrawLine+0x1cc>
 8001c70:	79bb      	ldrb	r3, [r7, #6]
 8001c72:	827b      	strh	r3, [r7, #18]
 8001c74:	e023      	b.n	8001cbe <OLED_DrawLine+0x1c2>
 8001c76:	8abb      	ldrh	r3, [r7, #20]
 8001c78:	b2db      	uxtb	r3, r3
 8001c7a:	8a7a      	ldrh	r2, [r7, #18]
 8001c7c:	b2d1      	uxtb	r1, r2
 8001c7e:	f897 2028 	ldrb.w	r2, [r7, #40]	; 0x28
 8001c82:	4618      	mov	r0, r3
 8001c84:	f7ff fd54 	bl	8001730 <OLED_SetPixel>
 8001c88:	8a3a      	ldrh	r2, [r7, #16]
 8001c8a:	89fb      	ldrh	r3, [r7, #14]
 8001c8c:	4413      	add	r3, r2
 8001c8e:	b29b      	uxth	r3, r3
 8001c90:	823b      	strh	r3, [r7, #16]
 8001c92:	f9b7 3010 	ldrsh.w	r3, [r7, #16]
 8001c96:	005a      	lsls	r2, r3, #1
 8001c98:	f9b7 300c 	ldrsh.w	r3, [r7, #12]
 8001c9c:	429a      	cmp	r2, r3
 8001c9e:	db09      	blt.n	8001cb4 <OLED_DrawLine+0x1b8>
 8001ca0:	8aba      	ldrh	r2, [r7, #20]
 8001ca2:	897b      	ldrh	r3, [r7, #10]
 8001ca4:	4413      	add	r3, r2
 8001ca6:	b29b      	uxth	r3, r3
 8001ca8:	82bb      	strh	r3, [r7, #20]
 8001caa:	8a3a      	ldrh	r2, [r7, #16]
 8001cac:	89bb      	ldrh	r3, [r7, #12]
 8001cae:	1ad3      	subs	r3, r2, r3
 8001cb0:	b29b      	uxth	r3, r3
 8001cb2:	823b      	strh	r3, [r7, #16]
 8001cb4:	8a7a      	ldrh	r2, [r7, #18]
 8001cb6:	893b      	ldrh	r3, [r7, #8]
 8001cb8:	4413      	add	r3, r2
 8001cba:	b29b      	uxth	r3, r3
 8001cbc:	827b      	strh	r3, [r7, #18]
 8001cbe:	f9b7 2012 	ldrsh.w	r2, [r7, #18]
 8001cc2:	793b      	ldrb	r3, [r7, #4]
 8001cc4:	429a      	cmp	r2, r3
 8001cc6:	d1d6      	bne.n	8001c76 <OLED_DrawLine+0x17a>
 8001cc8:	bf00      	nop
 8001cca:	371c      	adds	r7, #28
 8001ccc:	46bd      	mov	sp, r7
 8001cce:	bd90      	pop	{r4, r7, pc}
 8001cd0:	200005fe 	.word	0x200005fe

08001cd4 <OLED_DrawImage>:
 8001cd4:	b5b0      	push	{r4, r5, r7, lr}
 8001cd6:	b084      	sub	sp, #16
 8001cd8:	af02      	add	r7, sp, #8
 8001cda:	603a      	str	r2, [r7, #0]
 8001cdc:	461a      	mov	r2, r3
 8001cde:	4603      	mov	r3, r0
 8001ce0:	71fb      	strb	r3, [r7, #7]
 8001ce2:	460b      	mov	r3, r1
 8001ce4:	71bb      	strb	r3, [r7, #6]
 8001ce6:	4613      	mov	r3, r2
 8001ce8:	717b      	strb	r3, [r7, #5]
 8001cea:	683b      	ldr	r3, [r7, #0]
 8001cec:	685c      	ldr	r4, [r3, #4]
 8001cee:	683b      	ldr	r3, [r7, #0]
 8001cf0:	781d      	ldrb	r5, [r3, #0]
 8001cf2:	683b      	ldr	r3, [r7, #0]
 8001cf4:	785b      	ldrb	r3, [r3, #1]
 8001cf6:	79b9      	ldrb	r1, [r7, #6]
 8001cf8:	79f8      	ldrb	r0, [r7, #7]
 8001cfa:	797a      	ldrb	r2, [r7, #5]
 8001cfc:	9201      	str	r2, [sp, #4]
 8001cfe:	9300      	str	r3, [sp, #0]
 8001d00:	462b      	mov	r3, r5
 8001d02:	4622      	mov	r2, r4
 8001d04:	f7ff fe88 	bl	8001a18 <OLED_SetBlock>
 8001d08:	bf00      	nop
 8001d0a:	3708      	adds	r7, #8
 8001d0c:	46bd      	mov	sp, r7
 8001d0e:	bdb0      	pop	{r4, r5, r7, pc}

08001d10 <OLED_PrintASCIIChar>:
 8001d10:	b5b0      	push	{r4, r5, r7, lr}
 8001d12:	b084      	sub	sp, #16
 8001d14:	af02      	add	r7, sp, #8
 8001d16:	603b      	str	r3, [r7, #0]
 8001d18:	4603      	mov	r3, r0
 8001d1a:	71fb      	strb	r3, [r7, #7]
 8001d1c:	460b      	mov	r3, r1
 8001d1e:	71bb      	strb	r3, [r7, #6]
 8001d20:	4613      	mov	r3, r2
 8001d22:	717b      	strb	r3, [r7, #5]
 8001d24:	683b      	ldr	r3, [r7, #0]
 8001d26:	685a      	ldr	r2, [r3, #4]
 8001d28:	797b      	ldrb	r3, [r7, #5]
 8001d2a:	f1a3 0120 	sub.w	r1, r3, #32
 8001d2e:	683b      	ldr	r3, [r7, #0]
 8001d30:	781b      	ldrb	r3, [r3, #0]
 8001d32:	3307      	adds	r3, #7
 8001d34:	2b00      	cmp	r3, #0
 8001d36:	da00      	bge.n	8001d3a <OLED_PrintASCIIChar+0x2a>
 8001d38:	3307      	adds	r3, #7
 8001d3a:	10db      	asrs	r3, r3, #3
 8001d3c:	4618      	mov	r0, r3
 8001d3e:	683b      	ldr	r3, [r7, #0]
 8001d40:	785b      	ldrb	r3, [r3, #1]
 8001d42:	fb00 f303 	mul.w	r3, r0, r3
 8001d46:	fb01 f303 	mul.w	r3, r1, r3
 8001d4a:	18d4      	adds	r4, r2, r3
 8001d4c:	683b      	ldr	r3, [r7, #0]
 8001d4e:	785d      	ldrb	r5, [r3, #1]
 8001d50:	683b      	ldr	r3, [r7, #0]
 8001d52:	781b      	ldrb	r3, [r3, #0]
 8001d54:	79b9      	ldrb	r1, [r7, #6]
 8001d56:	79f8      	ldrb	r0, [r7, #7]
 8001d58:	7e3a      	ldrb	r2, [r7, #24]
 8001d5a:	9201      	str	r2, [sp, #4]
 8001d5c:	9300      	str	r3, [sp, #0]
 8001d5e:	462b      	mov	r3, r5
 8001d60:	4622      	mov	r2, r4
 8001d62:	f7ff fe59 	bl	8001a18 <OLED_SetBlock>
 8001d66:	bf00      	nop
 8001d68:	3708      	adds	r7, #8
 8001d6a:	46bd      	mov	sp, r7
 8001d6c:	bdb0      	pop	{r4, r5, r7, pc}

08001d6e <_OLED_GetUTF8Len>:
 8001d6e:	b480      	push	{r7}
 8001d70:	b083      	sub	sp, #12
 8001d72:	af00      	add	r7, sp, #0
 8001d74:	6078      	str	r0, [r7, #4]
 8001d76:	687b      	ldr	r3, [r7, #4]
 8001d78:	781b      	ldrb	r3, [r3, #0]
 8001d7a:	b25b      	sxtb	r3, r3
 8001d7c:	2b00      	cmp	r3, #0
 8001d7e:	db01      	blt.n	8001d84 <_OLED_GetUTF8Len+0x16>
 8001d80:	2301      	movs	r3, #1
 8001d82:	e018      	b.n	8001db6 <_OLED_GetUTF8Len+0x48>
 8001d84:	687b      	ldr	r3, [r7, #4]
 8001d86:	781b      	ldrb	r3, [r3, #0]
 8001d88:	f003 03e0 	and.w	r3, r3, #224	; 0xe0
 8001d8c:	2bc0      	cmp	r3, #192	; 0xc0
 8001d8e:	d101      	bne.n	8001d94 <_OLED_GetUTF8Len+0x26>
 8001d90:	2302      	movs	r3, #2
 8001d92:	e010      	b.n	8001db6 <_OLED_GetUTF8Len+0x48>
 8001d94:	687b      	ldr	r3, [r7, #4]
 8001d96:	781b      	ldrb	r3, [r3, #0]
 8001d98:	f003 03f0 	and.w	r3, r3, #240	; 0xf0
 8001d9c:	2be0      	cmp	r3, #224	; 0xe0
 8001d9e:	d101      	bne.n	8001da4 <_OLED_GetUTF8Len+0x36>
 8001da0:	2303      	movs	r3, #3
 8001da2:	e008      	b.n	8001db6 <_OLED_GetUTF8Len+0x48>
 8001da4:	687b      	ldr	r3, [r7, #4]
 8001da6:	781b      	ldrb	r3, [r3, #0]
 8001da8:	f003 03f8 	and.w	r3, r3, #248	; 0xf8
 8001dac:	2bf0      	cmp	r3, #240	; 0xf0
 8001dae:	d101      	bne.n	8001db4 <_OLED_GetUTF8Len+0x46>
 8001db0:	2304      	movs	r3, #4
 8001db2:	e000      	b.n	8001db6 <_OLED_GetUTF8Len+0x48>
 8001db4:	2300      	movs	r3, #0
 8001db6:	4618      	mov	r0, r3
 8001db8:	370c      	adds	r7, #12
 8001dba:	46bd      	mov	sp, r7
 8001dbc:	bc80      	pop	{r7}
 8001dbe:	4770      	bx	lr

08001dc0 <OLED_PrintString>:
 8001dc0:	b5b0      	push	{r4, r5, r7, lr}
 8001dc2:	b08a      	sub	sp, #40	; 0x28
 8001dc4:	af02      	add	r7, sp, #8
 8001dc6:	60ba      	str	r2, [r7, #8]
 8001dc8:	607b      	str	r3, [r7, #4]
 8001dca:	4603      	mov	r3, r0
 8001dcc:	73fb      	strb	r3, [r7, #15]
 8001dce:	460b      	mov	r3, r1
 8001dd0:	73bb      	strb	r3, [r7, #14]
 8001dd2:	2300      	movs	r3, #0
 8001dd4:	83fb      	strh	r3, [r7, #30]
 8001dd6:	687b      	ldr	r3, [r7, #4]
 8001dd8:	781b      	ldrb	r3, [r3, #0]
 8001dda:	3307      	adds	r3, #7
 8001ddc:	2b00      	cmp	r3, #0
 8001dde:	da00      	bge.n	8001de2 <OLED_PrintString+0x22>
 8001de0:	3307      	adds	r3, #7
 8001de2:	10db      	asrs	r3, r3, #3
 8001de4:	b2db      	uxtb	r3, r3
 8001de6:	687a      	ldr	r2, [r7, #4]
 8001de8:	7852      	ldrb	r2, [r2, #1]
 8001dea:	fb02 f303 	mul.w	r3, r2, r3
 8001dee:	b2db      	uxtb	r3, r3
 8001df0:	3304      	adds	r3, #4
 8001df2:	76fb      	strb	r3, [r7, #27]
 8001df4:	e07d      	b.n	8001ef2 <OLED_PrintString+0x132>
 8001df6:	2300      	movs	r3, #0
 8001df8:	777b      	strb	r3, [r7, #29]
 8001dfa:	8bfb      	ldrh	r3, [r7, #30]
 8001dfc:	68ba      	ldr	r2, [r7, #8]
 8001dfe:	4413      	add	r3, r2
 8001e00:	4618      	mov	r0, r3
 8001e02:	f7ff ffb4 	bl	8001d6e <_OLED_GetUTF8Len>
 8001e06:	4603      	mov	r3, r0
 8001e08:	76bb      	strb	r3, [r7, #26]
 8001e0a:	7ebb      	ldrb	r3, [r7, #26]
 8001e0c:	2b00      	cmp	r3, #0
 8001e0e:	d078      	beq.n	8001f02 <OLED_PrintString+0x142>
 8001e10:	2300      	movs	r3, #0
 8001e12:	773b      	strb	r3, [r7, #28]
 8001e14:	e032      	b.n	8001e7c <OLED_PrintString+0xbc>
 8001e16:	687b      	ldr	r3, [r7, #4]
 8001e18:	685b      	ldr	r3, [r3, #4]
 8001e1a:	7f3a      	ldrb	r2, [r7, #28]
 8001e1c:	7ef9      	ldrb	r1, [r7, #27]
 8001e1e:	fb01 f202 	mul.w	r2, r1, r2
 8001e22:	4413      	add	r3, r2
 8001e24:	617b      	str	r3, [r7, #20]
 8001e26:	8bfb      	ldrh	r3, [r7, #30]
 8001e28:	68ba      	ldr	r2, [r7, #8]
 8001e2a:	4413      	add	r3, r2
 8001e2c:	7eba      	ldrb	r2, [r7, #26]
 8001e2e:	6979      	ldr	r1, [r7, #20]
 8001e30:	4618      	mov	r0, r3
 8001e32:	f002 f9e5 	bl	8004200 <memcmp>
 8001e36:	4603      	mov	r3, r0
 8001e38:	2b00      	cmp	r3, #0
 8001e3a:	d11c      	bne.n	8001e76 <OLED_PrintString+0xb6>
 8001e3c:	697b      	ldr	r3, [r7, #20]
 8001e3e:	1d1c      	adds	r4, r3, #4
 8001e40:	687b      	ldr	r3, [r7, #4]
 8001e42:	785d      	ldrb	r5, [r3, #1]
 8001e44:	687b      	ldr	r3, [r7, #4]
 8001e46:	781b      	ldrb	r3, [r3, #0]
 8001e48:	7bb9      	ldrb	r1, [r7, #14]
 8001e4a:	7bf8      	ldrb	r0, [r7, #15]
 8001e4c:	f897 2030 	ldrb.w	r2, [r7, #48]	; 0x30
 8001e50:	9201      	str	r2, [sp, #4]
 8001e52:	9300      	str	r3, [sp, #0]
 8001e54:	462b      	mov	r3, r5
 8001e56:	4622      	mov	r2, r4
 8001e58:	f7ff fdde 	bl	8001a18 <OLED_SetBlock>
 8001e5c:	687b      	ldr	r3, [r7, #4]
 8001e5e:	785a      	ldrb	r2, [r3, #1]
 8001e60:	7bfb      	ldrb	r3, [r7, #15]
 8001e62:	4413      	add	r3, r2
 8001e64:	73fb      	strb	r3, [r7, #15]
 8001e66:	7ebb      	ldrb	r3, [r7, #26]
 8001e68:	b29a      	uxth	r2, r3
 8001e6a:	8bfb      	ldrh	r3, [r7, #30]
 8001e6c:	4413      	add	r3, r2
 8001e6e:	83fb      	strh	r3, [r7, #30]
 8001e70:	2301      	movs	r3, #1
 8001e72:	777b      	strb	r3, [r7, #29]
 8001e74:	e007      	b.n	8001e86 <OLED_PrintString+0xc6>
 8001e76:	7f3b      	ldrb	r3, [r7, #28]
 8001e78:	3301      	adds	r3, #1
 8001e7a:	773b      	strb	r3, [r7, #28]
 8001e7c:	687b      	ldr	r3, [r7, #4]
 8001e7e:	7a1b      	ldrb	r3, [r3, #8]
 8001e80:	7f3a      	ldrb	r2, [r7, #28]
 8001e82:	429a      	cmp	r2, r3
 8001e84:	d3c7      	bcc.n	8001e16 <OLED_PrintString+0x56>
 8001e86:	7f7b      	ldrb	r3, [r7, #29]
 8001e88:	2b00      	cmp	r3, #0
 8001e8a:	d132      	bne.n	8001ef2 <OLED_PrintString+0x132>
 8001e8c:	7ebb      	ldrb	r3, [r7, #26]
 8001e8e:	2b01      	cmp	r3, #1
 8001e90:	d119      	bne.n	8001ec6 <OLED_PrintString+0x106>
 8001e92:	8bfb      	ldrh	r3, [r7, #30]
 8001e94:	68ba      	ldr	r2, [r7, #8]
 8001e96:	4413      	add	r3, r2
 8001e98:	781a      	ldrb	r2, [r3, #0]
 8001e9a:	687b      	ldr	r3, [r7, #4]
 8001e9c:	68dc      	ldr	r4, [r3, #12]
 8001e9e:	7bb9      	ldrb	r1, [r7, #14]
 8001ea0:	7bf8      	ldrb	r0, [r7, #15]
 8001ea2:	f897 3030 	ldrb.w	r3, [r7, #48]	; 0x30
 8001ea6:	9300      	str	r3, [sp, #0]
 8001ea8:	4623      	mov	r3, r4
 8001eaa:	f7ff ff31 	bl	8001d10 <OLED_PrintASCIIChar>
 8001eae:	687b      	ldr	r3, [r7, #4]
 8001eb0:	68db      	ldr	r3, [r3, #12]
 8001eb2:	785a      	ldrb	r2, [r3, #1]
 8001eb4:	7bfb      	ldrb	r3, [r7, #15]
 8001eb6:	4413      	add	r3, r2
 8001eb8:	73fb      	strb	r3, [r7, #15]
 8001eba:	7ebb      	ldrb	r3, [r7, #26]
 8001ebc:	b29a      	uxth	r2, r3
 8001ebe:	8bfb      	ldrh	r3, [r7, #30]
 8001ec0:	4413      	add	r3, r2
 8001ec2:	83fb      	strh	r3, [r7, #30]
 8001ec4:	e015      	b.n	8001ef2 <OLED_PrintString+0x132>
 8001ec6:	687b      	ldr	r3, [r7, #4]
 8001ec8:	68da      	ldr	r2, [r3, #12]
 8001eca:	7bb9      	ldrb	r1, [r7, #14]
 8001ecc:	7bf8      	ldrb	r0, [r7, #15]
 8001ece:	f897 3030 	ldrb.w	r3, [r7, #48]	; 0x30
 8001ed2:	9300      	str	r3, [sp, #0]
 8001ed4:	4613      	mov	r3, r2
 8001ed6:	2220      	movs	r2, #32
 8001ed8:	f7ff ff1a 	bl	8001d10 <OLED_PrintASCIIChar>
 8001edc:	687b      	ldr	r3, [r7, #4]
 8001ede:	68db      	ldr	r3, [r3, #12]
 8001ee0:	785a      	ldrb	r2, [r3, #1]
 8001ee2:	7bfb      	ldrb	r3, [r7, #15]
 8001ee4:	4413      	add	r3, r2
 8001ee6:	73fb      	strb	r3, [r7, #15]
 8001ee8:	7ebb      	ldrb	r3, [r7, #26]
 8001eea:	b29a      	uxth	r2, r3
 8001eec:	8bfb      	ldrh	r3, [r7, #30]
 8001eee:	4413      	add	r3, r2
 8001ef0:	83fb      	strh	r3, [r7, #30]
 8001ef2:	8bfb      	ldrh	r3, [r7, #30]
 8001ef4:	68ba      	ldr	r2, [r7, #8]
 8001ef6:	4413      	add	r3, r2
 8001ef8:	781b      	ldrb	r3, [r3, #0]
 8001efa:	2b00      	cmp	r3, #0
 8001efc:	f47f af7b 	bne.w	8001df6 <OLED_PrintString+0x36>
 8001f00:	e000      	b.n	8001f04 <OLED_PrintString+0x144>
 8001f02:	bf00      	nop
 8001f04:	bf00      	nop
 8001f06:	3720      	adds	r7, #32
 8001f08:	46bd      	mov	sp, r7
 8001f0a:	bdb0      	pop	{r4, r5, r7, pc}

08001f0c <OLED_DrawPoint>:
 8001f0c:	b480      	push	{r7}
 8001f0e:	b083      	sub	sp, #12
 8001f10:	af00      	add	r7, sp, #0
 8001f12:	4603      	mov	r3, r0
 8001f14:	460a      	mov	r2, r1
 8001f16:	80fb      	strh	r3, [r7, #6]
 8001f18:	4613      	mov	r3, r2
 8001f1a:	80bb      	strh	r3, [r7, #4]
 8001f1c:	f9b7 3006 	ldrsh.w	r3, [r7, #6]
 8001f20:	2b00      	cmp	r3, #0
 8001f22:	db35      	blt.n	8001f90 <OLED_DrawPoint+0x84>
 8001f24:	f9b7 3006 	ldrsh.w	r3, [r7, #6]
 8001f28:	2b7f      	cmp	r3, #127	; 0x7f
 8001f2a:	dc31      	bgt.n	8001f90 <OLED_DrawPoint+0x84>
 8001f2c:	f9b7 3004 	ldrsh.w	r3, [r7, #4]
 8001f30:	2b00      	cmp	r3, #0
 8001f32:	db2d      	blt.n	8001f90 <OLED_DrawPoint+0x84>
 8001f34:	f9b7 3004 	ldrsh.w	r3, [r7, #4]
 8001f38:	2b3f      	cmp	r3, #63	; 0x3f
 8001f3a:	dc29      	bgt.n	8001f90 <OLED_DrawPoint+0x84>
 8001f3c:	f9b7 3004 	ldrsh.w	r3, [r7, #4]
 8001f40:	2b00      	cmp	r3, #0
 8001f42:	da00      	bge.n	8001f46 <OLED_DrawPoint+0x3a>
 8001f44:	3307      	adds	r3, #7
 8001f46:	10db      	asrs	r3, r3, #3
 8001f48:	b218      	sxth	r0, r3
 8001f4a:	4602      	mov	r2, r0
 8001f4c:	f9b7 3006 	ldrsh.w	r3, [r7, #6]
 8001f50:	4912      	ldr	r1, [pc, #72]	; (8001f9c <OLED_DrawPoint+0x90>)
 8001f52:	01d2      	lsls	r2, r2, #7
 8001f54:	440a      	add	r2, r1
 8001f56:	4413      	add	r3, r2
 8001f58:	781b      	ldrb	r3, [r3, #0]
 8001f5a:	b25a      	sxtb	r2, r3
 8001f5c:	f9b7 3004 	ldrsh.w	r3, [r7, #4]
 8001f60:	4259      	negs	r1, r3
 8001f62:	f003 0307 	and.w	r3, r3, #7
 8001f66:	f001 0107 	and.w	r1, r1, #7
 8001f6a:	bf58      	it	pl
 8001f6c:	424b      	negpl	r3, r1
 8001f6e:	b21b      	sxth	r3, r3
 8001f70:	4619      	mov	r1, r3
 8001f72:	2301      	movs	r3, #1
 8001f74:	408b      	lsls	r3, r1
 8001f76:	b25b      	sxtb	r3, r3
 8001f78:	4313      	orrs	r3, r2
 8001f7a:	b259      	sxtb	r1, r3
 8001f7c:	4602      	mov	r2, r0
 8001f7e:	f9b7 3006 	ldrsh.w	r3, [r7, #6]
 8001f82:	b2c8      	uxtb	r0, r1
 8001f84:	4905      	ldr	r1, [pc, #20]	; (8001f9c <OLED_DrawPoint+0x90>)
 8001f86:	01d2      	lsls	r2, r2, #7
 8001f88:	440a      	add	r2, r1
 8001f8a:	4413      	add	r3, r2
 8001f8c:	4602      	mov	r2, r0
 8001f8e:	701a      	strb	r2, [r3, #0]
 8001f90:	bf00      	nop
 8001f92:	370c      	adds	r7, #12
 8001f94:	46bd      	mov	sp, r7
 8001f96:	bc80      	pop	{r7}
 8001f98:	4770      	bx	lr
 8001f9a:	bf00      	nop
 8001f9c:	2000017c 	.word	0x2000017c

08001fa0 <HAL_Init>:
 8001fa0:	b580      	push	{r7, lr}
 8001fa2:	af00      	add	r7, sp, #0
 8001fa4:	4b08      	ldr	r3, [pc, #32]	; (8001fc8 <HAL_Init+0x28>)
 8001fa6:	681b      	ldr	r3, [r3, #0]
 8001fa8:	4a07      	ldr	r2, [pc, #28]	; (8001fc8 <HAL_Init+0x28>)
 8001faa:	f043 0310 	orr.w	r3, r3, #16
 8001fae:	6013      	str	r3, [r2, #0]
 8001fb0:	2003      	movs	r0, #3
 8001fb2:	f000 f947 	bl	8002244 <HAL_NVIC_SetPriorityGrouping>
 8001fb6:	2000      	movs	r0, #0
 8001fb8:	f000 f808 	bl	8001fcc <HAL_InitTick>
 8001fbc:	f7ff f9bc 	bl	8001338 <HAL_MspInit>
 8001fc0:	2300      	movs	r3, #0
 8001fc2:	4618      	mov	r0, r3
 8001fc4:	bd80      	pop	{r7, pc}
 8001fc6:	bf00      	nop
 8001fc8:	40022000 	.word	0x40022000

08001fcc <HAL_InitTick>:
 8001fcc:	b580      	push	{r7, lr}
 8001fce:	b082      	sub	sp, #8
 8001fd0:	af00      	add	r7, sp, #0
 8001fd2:	6078      	str	r0, [r7, #4]
 8001fd4:	4b12      	ldr	r3, [pc, #72]	; (8002020 <HAL_InitTick+0x54>)
 8001fd6:	681a      	ldr	r2, [r3, #0]
 8001fd8:	4b12      	ldr	r3, [pc, #72]	; (8002024 <HAL_InitTick+0x58>)
 8001fda:	781b      	ldrb	r3, [r3, #0]
 8001fdc:	4619      	mov	r1, r3
 8001fde:	f44f 737a 	mov.w	r3, #1000	; 0x3e8
 8001fe2:	fbb3 f3f1 	udiv	r3, r3, r1
 8001fe6:	fbb2 f3f3 	udiv	r3, r2, r3
 8001fea:	4618      	mov	r0, r3
 8001fec:	f000 f95f 	bl	80022ae <HAL_SYSTICK_Config>
 8001ff0:	4603      	mov	r3, r0
 8001ff2:	2b00      	cmp	r3, #0
 8001ff4:	d001      	beq.n	8001ffa <HAL_InitTick+0x2e>
 8001ff6:	2301      	movs	r3, #1
 8001ff8:	e00e      	b.n	8002018 <HAL_InitTick+0x4c>
 8001ffa:	687b      	ldr	r3, [r7, #4]
 8001ffc:	2b0f      	cmp	r3, #15
 8001ffe:	d80a      	bhi.n	8002016 <HAL_InitTick+0x4a>
 8002000:	2200      	movs	r2, #0
 8002002:	6879      	ldr	r1, [r7, #4]
 8002004:	f04f 30ff 	mov.w	r0, #4294967295
 8002008:	f000 f927 	bl	800225a <HAL_NVIC_SetPriority>
 800200c:	4a06      	ldr	r2, [pc, #24]	; (8002028 <HAL_InitTick+0x5c>)
 800200e:	687b      	ldr	r3, [r7, #4]
 8002010:	6013      	str	r3, [r2, #0]
 8002012:	2300      	movs	r3, #0
 8002014:	e000      	b.n	8002018 <HAL_InitTick+0x4c>
 8002016:	2301      	movs	r3, #1
 8002018:	4618      	mov	r0, r3
 800201a:	3708      	adds	r7, #8
 800201c:	46bd      	mov	sp, r7
 800201e:	bd80      	pop	{r7, pc}
 8002020:	20000028 	.word	0x20000028
 8002024:	20000030 	.word	0x20000030
 8002028:	2000002c 	.word	0x2000002c

0800202c <HAL_IncTick>:
 800202c:	b480      	push	{r7}
 800202e:	af00      	add	r7, sp, #0
 8002030:	4b05      	ldr	r3, [pc, #20]	; (8002048 <HAL_IncTick+0x1c>)
 8002032:	781b      	ldrb	r3, [r3, #0]
 8002034:	461a      	mov	r2, r3
 8002036:	4b05      	ldr	r3, [pc, #20]	; (800204c <HAL_IncTick+0x20>)
 8002038:	681b      	ldr	r3, [r3, #0]
 800203a:	4413      	add	r3, r2
 800203c:	4a03      	ldr	r2, [pc, #12]	; (800204c <HAL_IncTick+0x20>)
 800203e:	6013      	str	r3, [r2, #0]
 8002040:	bf00      	nop
 8002042:	46bd      	mov	sp, r7
 8002044:	bc80      	pop	{r7}
 8002046:	4770      	bx	lr
 8002048:	20000030 	.word	0x20000030
 800204c:	20000600 	.word	0x20000600

08002050 <HAL_GetTick>:
 8002050:	b480      	push	{r7}
 8002052:	af00      	add	r7, sp, #0
 8002054:	4b02      	ldr	r3, [pc, #8]	; (8002060 <HAL_GetTick+0x10>)
 8002056:	681b      	ldr	r3, [r3, #0]
 8002058:	4618      	mov	r0, r3
 800205a:	46bd      	mov	sp, r7
 800205c:	bc80      	pop	{r7}
 800205e:	4770      	bx	lr
 8002060:	20000600 	.word	0x20000600

08002064 <HAL_Delay>:
 8002064:	b580      	push	{r7, lr}
 8002066:	b084      	sub	sp, #16
 8002068:	af00      	add	r7, sp, #0
 800206a:	6078      	str	r0, [r7, #4]
 800206c:	f7ff fff0 	bl	8002050 <HAL_GetTick>
 8002070:	60b8      	str	r0, [r7, #8]
 8002072:	687b      	ldr	r3, [r7, #4]
 8002074:	60fb      	str	r3, [r7, #12]
 8002076:	68fb      	ldr	r3, [r7, #12]
 8002078:	f1b3 3fff 	cmp.w	r3, #4294967295
 800207c:	d005      	beq.n	800208a <HAL_Delay+0x26>
 800207e:	4b0a      	ldr	r3, [pc, #40]	; (80020a8 <HAL_Delay+0x44>)
 8002080:	781b      	ldrb	r3, [r3, #0]
 8002082:	461a      	mov	r2, r3
 8002084:	68fb      	ldr	r3, [r7, #12]
 8002086:	4413      	add	r3, r2
 8002088:	60fb      	str	r3, [r7, #12]
 800208a:	bf00      	nop
 800208c:	f7ff ffe0 	bl	8002050 <HAL_GetTick>
 8002090:	4602      	mov	r2, r0
 8002092:	68bb      	ldr	r3, [r7, #8]
 8002094:	1ad3      	subs	r3, r2, r3
 8002096:	68fa      	ldr	r2, [r7, #12]
 8002098:	429a      	cmp	r2, r3
 800209a:	d8f7      	bhi.n	800208c <HAL_Delay+0x28>
 800209c:	bf00      	nop
 800209e:	bf00      	nop
 80020a0:	3710      	adds	r7, #16
 80020a2:	46bd      	mov	sp, r7
 80020a4:	bd80      	pop	{r7, pc}
 80020a6:	bf00      	nop
 80020a8:	20000030 	.word	0x20000030

080020ac <__NVIC_SetPriorityGrouping>:
 80020ac:	b480      	push	{r7}
 80020ae:	b085      	sub	sp, #20
 80020b0:	af00      	add	r7, sp, #0
 80020b2:	6078      	str	r0, [r7, #4]
 80020b4:	687b      	ldr	r3, [r7, #4]
 80020b6:	f003 0307 	and.w	r3, r3, #7
 80020ba:	60fb      	str	r3, [r7, #12]
 80020bc:	4b0c      	ldr	r3, [pc, #48]	; (80020f0 <__NVIC_SetPriorityGrouping+0x44>)
 80020be:	68db      	ldr	r3, [r3, #12]
 80020c0:	60bb      	str	r3, [r7, #8]
 80020c2:	68ba      	ldr	r2, [r7, #8]
 80020c4:	f64f 03ff 	movw	r3, #63743	; 0xf8ff
 80020c8:	4013      	ands	r3, r2
 80020ca:	60bb      	str	r3, [r7, #8]
 80020cc:	68fb      	ldr	r3, [r7, #12]
 80020ce:	021a      	lsls	r2, r3, #8
 80020d0:	68bb      	ldr	r3, [r7, #8]
 80020d2:	4313      	orrs	r3, r2
 80020d4:	f043 63bf 	orr.w	r3, r3, #100139008	; 0x5f80000
 80020d8:	f443 3300 	orr.w	r3, r3, #131072	; 0x20000
 80020dc:	60bb      	str	r3, [r7, #8]
 80020de:	4a04      	ldr	r2, [pc, #16]	; (80020f0 <__NVIC_SetPriorityGrouping+0x44>)
 80020e0:	68bb      	ldr	r3, [r7, #8]
 80020e2:	60d3      	str	r3, [r2, #12]
 80020e4:	bf00      	nop
 80020e6:	3714      	adds	r7, #20
 80020e8:	46bd      	mov	sp, r7
 80020ea:	bc80      	pop	{r7}
 80020ec:	4770      	bx	lr
 80020ee:	bf00      	nop
 80020f0:	e000ed00 	.word	0xe000ed00

080020f4 <__NVIC_GetPriorityGrouping>:
 80020f4:	b480      	push	{r7}
 80020f6:	af00      	add	r7, sp, #0
 80020f8:	4b04      	ldr	r3, [pc, #16]	; (800210c <__NVIC_GetPriorityGrouping+0x18>)
 80020fa:	68db      	ldr	r3, [r3, #12]
 80020fc:	0a1b      	lsrs	r3, r3, #8
 80020fe:	f003 0307 	and.w	r3, r3, #7
 8002102:	4618      	mov	r0, r3
 8002104:	46bd      	mov	sp, r7
 8002106:	bc80      	pop	{r7}
 8002108:	4770      	bx	lr
 800210a:	bf00      	nop
 800210c:	e000ed00 	.word	0xe000ed00

08002110 <__NVIC_EnableIRQ>:
 8002110:	b480      	push	{r7}
 8002112:	b083      	sub	sp, #12
 8002114:	af00      	add	r7, sp, #0
 8002116:	4603      	mov	r3, r0
 8002118:	71fb      	strb	r3, [r7, #7]
 800211a:	f997 3007 	ldrsb.w	r3, [r7, #7]
 800211e:	2b00      	cmp	r3, #0
 8002120:	db0b      	blt.n	800213a <__NVIC_EnableIRQ+0x2a>
 8002122:	79fb      	ldrb	r3, [r7, #7]
 8002124:	f003 021f 	and.w	r2, r3, #31
 8002128:	4906      	ldr	r1, [pc, #24]	; (8002144 <__NVIC_EnableIRQ+0x34>)
 800212a:	f997 3007 	ldrsb.w	r3, [r7, #7]
 800212e:	095b      	lsrs	r3, r3, #5
 8002130:	2001      	movs	r0, #1
 8002132:	fa00 f202 	lsl.w	r2, r0, r2
 8002136:	f841 2023 	str.w	r2, [r1, r3, lsl #2]
 800213a:	bf00      	nop
 800213c:	370c      	adds	r7, #12
 800213e:	46bd      	mov	sp, r7
 8002140:	bc80      	pop	{r7}
 8002142:	4770      	bx	lr
 8002144:	e000e100 	.word	0xe000e100

08002148 <__NVIC_SetPriority>:
 8002148:	b480      	push	{r7}
 800214a:	b083      	sub	sp, #12
 800214c:	af00      	add	r7, sp, #0
 800214e:	4603      	mov	r3, r0
 8002150:	6039      	str	r1, [r7, #0]
 8002152:	71fb      	strb	r3, [r7, #7]
 8002154:	f997 3007 	ldrsb.w	r3, [r7, #7]
 8002158:	2b00      	cmp	r3, #0
 800215a:	db0a      	blt.n	8002172 <__NVIC_SetPriority+0x2a>
 800215c:	683b      	ldr	r3, [r7, #0]
 800215e:	b2da      	uxtb	r2, r3
 8002160:	490c      	ldr	r1, [pc, #48]	; (8002194 <__NVIC_SetPriority+0x4c>)
 8002162:	f997 3007 	ldrsb.w	r3, [r7, #7]
 8002166:	0112      	lsls	r2, r2, #4
 8002168:	b2d2      	uxtb	r2, r2
 800216a:	440b      	add	r3, r1
 800216c:	f883 2300 	strb.w	r2, [r3, #768]	; 0x300
 8002170:	e00a      	b.n	8002188 <__NVIC_SetPriority+0x40>
 8002172:	683b      	ldr	r3, [r7, #0]
 8002174:	b2da      	uxtb	r2, r3
 8002176:	4908      	ldr	r1, [pc, #32]	; (8002198 <__NVIC_SetPriority+0x50>)
 8002178:	79fb      	ldrb	r3, [r7, #7]
 800217a:	f003 030f 	and.w	r3, r3, #15
 800217e:	3b04      	subs	r3, #4
 8002180:	0112      	lsls	r2, r2, #4
 8002182:	b2d2      	uxtb	r2, r2
 8002184:	440b      	add	r3, r1
 8002186:	761a      	strb	r2, [r3, #24]
 8002188:	bf00      	nop
 800218a:	370c      	adds	r7, #12
 800218c:	46bd      	mov	sp, r7
 800218e:	bc80      	pop	{r7}
 8002190:	4770      	bx	lr
 8002192:	bf00      	nop
 8002194:	e000e100 	.word	0xe000e100
 8002198:	e000ed00 	.word	0xe000ed00

0800219c <NVIC_EncodePriority>:
 800219c:	b480      	push	{r7}
 800219e:	b089      	sub	sp, #36	; 0x24
 80021a0:	af00      	add	r7, sp, #0
 80021a2:	60f8      	str	r0, [r7, #12]
 80021a4:	60b9      	str	r1, [r7, #8]
 80021a6:	607a      	str	r2, [r7, #4]
 80021a8:	68fb      	ldr	r3, [r7, #12]
 80021aa:	f003 0307 	and.w	r3, r3, #7
 80021ae:	61fb      	str	r3, [r7, #28]
 80021b0:	69fb      	ldr	r3, [r7, #28]
 80021b2:	f1c3 0307 	rsb	r3, r3, #7
 80021b6:	2b04      	cmp	r3, #4
 80021b8:	bf28      	it	cs
 80021ba:	2304      	movcs	r3, #4
 80021bc:	61bb      	str	r3, [r7, #24]
 80021be:	69fb      	ldr	r3, [r7, #28]
 80021c0:	3304      	adds	r3, #4
 80021c2:	2b06      	cmp	r3, #6
 80021c4:	d902      	bls.n	80021cc <NVIC_EncodePriority+0x30>
 80021c6:	69fb      	ldr	r3, [r7, #28]
 80021c8:	3b03      	subs	r3, #3
 80021ca:	e000      	b.n	80021ce <NVIC_EncodePriority+0x32>
 80021cc:	2300      	movs	r3, #0
 80021ce:	617b      	str	r3, [r7, #20]
 80021d0:	f04f 32ff 	mov.w	r2, #4294967295
 80021d4:	69bb      	ldr	r3, [r7, #24]
 80021d6:	fa02 f303 	lsl.w	r3, r2, r3
 80021da:	43da      	mvns	r2, r3
 80021dc:	68bb      	ldr	r3, [r7, #8]
 80021de:	401a      	ands	r2, r3
 80021e0:	697b      	ldr	r3, [r7, #20]
 80021e2:	409a      	lsls	r2, r3
 80021e4:	f04f 31ff 	mov.w	r1, #4294967295
 80021e8:	697b      	ldr	r3, [r7, #20]
 80021ea:	fa01 f303 	lsl.w	r3, r1, r3
 80021ee:	43d9      	mvns	r1, r3
 80021f0:	687b      	ldr	r3, [r7, #4]
 80021f2:	400b      	ands	r3, r1
 80021f4:	4313      	orrs	r3, r2
 80021f6:	4618      	mov	r0, r3
 80021f8:	3724      	adds	r7, #36	; 0x24
 80021fa:	46bd      	mov	sp, r7
 80021fc:	bc80      	pop	{r7}
 80021fe:	4770      	bx	lr

08002200 <SysTick_Config>:
 8002200:	b580      	push	{r7, lr}
 8002202:	b082      	sub	sp, #8
 8002204:	af00      	add	r7, sp, #0
 8002206:	6078      	str	r0, [r7, #4]
 8002208:	687b      	ldr	r3, [r7, #4]
 800220a:	3b01      	subs	r3, #1
 800220c:	f1b3 7f80 	cmp.w	r3, #16777216	; 0x1000000
 8002210:	d301      	bcc.n	8002216 <SysTick_Config+0x16>
 8002212:	2301      	movs	r3, #1
 8002214:	e00f      	b.n	8002236 <SysTick_Config+0x36>
 8002216:	4a0a      	ldr	r2, [pc, #40]	; (8002240 <SysTick_Config+0x40>)
 8002218:	687b      	ldr	r3, [r7, #4]
 800221a:	3b01      	subs	r3, #1
 800221c:	6053      	str	r3, [r2, #4]
 800221e:	210f      	movs	r1, #15
 8002220:	f04f 30ff 	mov.w	r0, #4294967295
 8002224:	f7ff ff90 	bl	8002148 <__NVIC_SetPriority>
 8002228:	4b05      	ldr	r3, [pc, #20]	; (8002240 <SysTick_Config+0x40>)
 800222a:	2200      	movs	r2, #0
 800222c:	609a      	str	r2, [r3, #8]
 800222e:	4b04      	ldr	r3, [pc, #16]	; (8002240 <SysTick_Config+0x40>)
 8002230:	2207      	movs	r2, #7
 8002232:	601a      	str	r2, [r3, #0]
 8002234:	2300      	movs	r3, #0
 8002236:	4618      	mov	r0, r3
 8002238:	3708      	adds	r7, #8
 800223a:	46bd      	mov	sp, r7
 800223c:	bd80      	pop	{r7, pc}
 800223e:	bf00      	nop
 8002240:	e000e010 	.word	0xe000e010

08002244 <HAL_NVIC_SetPriorityGrouping>:
 8002244:	b580      	push	{r7, lr}
 8002246:	b082      	sub	sp, #8
 8002248:	af00      	add	r7, sp, #0
 800224a:	6078      	str	r0, [r7, #4]
 800224c:	6878      	ldr	r0, [r7, #4]
 800224e:	f7ff ff2d 	bl	80020ac <__NVIC_SetPriorityGrouping>
 8002252:	bf00      	nop
 8002254:	3708      	adds	r7, #8
 8002256:	46bd      	mov	sp, r7
 8002258:	bd80      	pop	{r7, pc}

0800225a <HAL_NVIC_SetPriority>:
 800225a:	b580      	push	{r7, lr}
 800225c:	b086      	sub	sp, #24
 800225e:	af00      	add	r7, sp, #0
 8002260:	4603      	mov	r3, r0
 8002262:	60b9      	str	r1, [r7, #8]
 8002264:	607a      	str	r2, [r7, #4]
 8002266:	73fb      	strb	r3, [r7, #15]
 8002268:	2300      	movs	r3, #0
 800226a:	617b      	str	r3, [r7, #20]
 800226c:	f7ff ff42 	bl	80020f4 <__NVIC_GetPriorityGrouping>
 8002270:	6178      	str	r0, [r7, #20]
 8002272:	687a      	ldr	r2, [r7, #4]
 8002274:	68b9      	ldr	r1, [r7, #8]
 8002276:	6978      	ldr	r0, [r7, #20]
 8002278:	f7ff ff90 	bl	800219c <NVIC_EncodePriority>
 800227c:	4602      	mov	r2, r0
 800227e:	f997 300f 	ldrsb.w	r3, [r7, #15]
 8002282:	4611      	mov	r1, r2
 8002284:	4618      	mov	r0, r3
 8002286:	f7ff ff5f 	bl	8002148 <__NVIC_SetPriority>
 800228a:	bf00      	nop
 800228c:	3718      	adds	r7, #24
 800228e:	46bd      	mov	sp, r7
 8002290:	bd80      	pop	{r7, pc}

08002292 <HAL_NVIC_EnableIRQ>:
 8002292:	b580      	push	{r7, lr}
 8002294:	b082      	sub	sp, #8
 8002296:	af00      	add	r7, sp, #0
 8002298:	4603      	mov	r3, r0
 800229a:	71fb      	strb	r3, [r7, #7]
 800229c:	f997 3007 	ldrsb.w	r3, [r7, #7]
 80022a0:	4618      	mov	r0, r3
 80022a2:	f7ff ff35 	bl	8002110 <__NVIC_EnableIRQ>
 80022a6:	bf00      	nop
 80022a8:	3708      	adds	r7, #8
 80022aa:	46bd      	mov	sp, r7
 80022ac:	bd80      	pop	{r7, pc}

080022ae <HAL_SYSTICK_Config>:
 80022ae:	b580      	push	{r7, lr}
 80022b0:	b082      	sub	sp, #8
 80022b2:	af00      	add	r7, sp, #0
 80022b4:	6078      	str	r0, [r7, #4]
 80022b6:	6878      	ldr	r0, [r7, #4]
 80022b8:	f7ff ffa2 	bl	8002200 <SysTick_Config>
 80022bc:	4603      	mov	r3, r0
 80022be:	4618      	mov	r0, r3
 80022c0:	3708      	adds	r7, #8
 80022c2:	46bd      	mov	sp, r7
 80022c4:	bd80      	pop	{r7, pc}
	...

080022c8 <HAL_GPIO_Init>:
 80022c8:	b480      	push	{r7}
 80022ca:	b08b      	sub	sp, #44	; 0x2c
 80022cc:	af00      	add	r7, sp, #0
 80022ce:	6078      	str	r0, [r7, #4]
 80022d0:	6039      	str	r1, [r7, #0]
 80022d2:	2300      	movs	r3, #0
 80022d4:	627b      	str	r3, [r7, #36]	; 0x24
 80022d6:	2300      	movs	r3, #0
 80022d8:	623b      	str	r3, [r7, #32]
 80022da:	e169      	b.n	80025b0 <HAL_GPIO_Init+0x2e8>
 80022dc:	2201      	movs	r2, #1
 80022de:	6a7b      	ldr	r3, [r7, #36]	; 0x24
 80022e0:	fa02 f303 	lsl.w	r3, r2, r3
 80022e4:	61fb      	str	r3, [r7, #28]
 80022e6:	683b      	ldr	r3, [r7, #0]
 80022e8:	681b      	ldr	r3, [r3, #0]
 80022ea:	69fa      	ldr	r2, [r7, #28]
 80022ec:	4013      	ands	r3, r2
 80022ee:	61bb      	str	r3, [r7, #24]
 80022f0:	69ba      	ldr	r2, [r7, #24]
 80022f2:	69fb      	ldr	r3, [r7, #28]
 80022f4:	429a      	cmp	r2, r3
 80022f6:	f040 8158 	bne.w	80025aa <HAL_GPIO_Init+0x2e2>
 80022fa:	683b      	ldr	r3, [r7, #0]
 80022fc:	685b      	ldr	r3, [r3, #4]
 80022fe:	4a9a      	ldr	r2, [pc, #616]	; (8002568 <HAL_GPIO_Init+0x2a0>)
 8002300:	4293      	cmp	r3, r2
 8002302:	d05e      	beq.n	80023c2 <HAL_GPIO_Init+0xfa>
 8002304:	4a98      	ldr	r2, [pc, #608]	; (8002568 <HAL_GPIO_Init+0x2a0>)
 8002306:	4293      	cmp	r3, r2
 8002308:	d875      	bhi.n	80023f6 <HAL_GPIO_Init+0x12e>
 800230a:	4a98      	ldr	r2, [pc, #608]	; (800256c <HAL_GPIO_Init+0x2a4>)
 800230c:	4293      	cmp	r3, r2
 800230e:	d058      	beq.n	80023c2 <HAL_GPIO_Init+0xfa>
 8002310:	4a96      	ldr	r2, [pc, #600]	; (800256c <HAL_GPIO_Init+0x2a4>)
 8002312:	4293      	cmp	r3, r2
 8002314:	d86f      	bhi.n	80023f6 <HAL_GPIO_Init+0x12e>
 8002316:	4a96      	ldr	r2, [pc, #600]	; (8002570 <HAL_GPIO_Init+0x2a8>)
 8002318:	4293      	cmp	r3, r2
 800231a:	d052      	beq.n	80023c2 <HAL_GPIO_Init+0xfa>
 800231c:	4a94      	ldr	r2, [pc, #592]	; (8002570 <HAL_GPIO_Init+0x2a8>)
 800231e:	4293      	cmp	r3, r2
 8002320:	d869      	bhi.n	80023f6 <HAL_GPIO_Init+0x12e>
 8002322:	4a94      	ldr	r2, [pc, #592]	; (8002574 <HAL_GPIO_Init+0x2ac>)
 8002324:	4293      	cmp	r3, r2
 8002326:	d04c      	beq.n	80023c2 <HAL_GPIO_Init+0xfa>
 8002328:	4a92      	ldr	r2, [pc, #584]	; (8002574 <HAL_GPIO_Init+0x2ac>)
 800232a:	4293      	cmp	r3, r2
 800232c:	d863      	bhi.n	80023f6 <HAL_GPIO_Init+0x12e>
 800232e:	4a92      	ldr	r2, [pc, #584]	; (8002578 <HAL_GPIO_Init+0x2b0>)
 8002330:	4293      	cmp	r3, r2
 8002332:	d046      	beq.n	80023c2 <HAL_GPIO_Init+0xfa>
 8002334:	4a90      	ldr	r2, [pc, #576]	; (8002578 <HAL_GPIO_Init+0x2b0>)
 8002336:	4293      	cmp	r3, r2
 8002338:	d85d      	bhi.n	80023f6 <HAL_GPIO_Init+0x12e>
 800233a:	2b12      	cmp	r3, #18
 800233c:	d82a      	bhi.n	8002394 <HAL_GPIO_Init+0xcc>
 800233e:	2b12      	cmp	r3, #18
 8002340:	d859      	bhi.n	80023f6 <HAL_GPIO_Init+0x12e>
 8002342:	a201      	add	r2, pc, #4	; (adr r2, 8002348 <HAL_GPIO_Init+0x80>)
 8002344:	f852 f023 	ldr.w	pc, [r2, r3, lsl #2]
 8002348:	080023c3 	.word	0x080023c3
 800234c:	0800239d 	.word	0x0800239d
 8002350:	080023af 	.word	0x080023af
 8002354:	080023f1 	.word	0x080023f1
 8002358:	080023f7 	.word	0x080023f7
 800235c:	080023f7 	.word	0x080023f7
 8002360:	080023f7 	.word	0x080023f7
 8002364:	080023f7 	.word	0x080023f7
 8002368:	080023f7 	.word	0x080023f7
 800236c:	080023f7 	.word	0x080023f7
 8002370:	080023f7 	.word	0x080023f7
 8002374:	080023f7 	.word	0x080023f7
 8002378:	080023f7 	.word	0x080023f7
 800237c:	080023f7 	.word	0x080023f7
 8002380:	080023f7 	.word	0x080023f7
 8002384:	080023f7 	.word	0x080023f7
 8002388:	080023f7 	.word	0x080023f7
 800238c:	080023a5 	.word	0x080023a5
 8002390:	080023b9 	.word	0x080023b9
 8002394:	4a79      	ldr	r2, [pc, #484]	; (800257c <HAL_GPIO_Init+0x2b4>)
 8002396:	4293      	cmp	r3, r2
 8002398:	d013      	beq.n	80023c2 <HAL_GPIO_Init+0xfa>
 800239a:	e02c      	b.n	80023f6 <HAL_GPIO_Init+0x12e>
 800239c:	683b      	ldr	r3, [r7, #0]
 800239e:	68db      	ldr	r3, [r3, #12]
 80023a0:	623b      	str	r3, [r7, #32]
 80023a2:	e029      	b.n	80023f8 <HAL_GPIO_Init+0x130>
 80023a4:	683b      	ldr	r3, [r7, #0]
 80023a6:	68db      	ldr	r3, [r3, #12]
 80023a8:	3304      	adds	r3, #4
 80023aa:	623b      	str	r3, [r7, #32]
 80023ac:	e024      	b.n	80023f8 <HAL_GPIO_Init+0x130>
 80023ae:	683b      	ldr	r3, [r7, #0]
 80023b0:	68db      	ldr	r3, [r3, #12]
 80023b2:	3308      	adds	r3, #8
 80023b4:	623b      	str	r3, [r7, #32]
 80023b6:	e01f      	b.n	80023f8 <HAL_GPIO_Init+0x130>
 80023b8:	683b      	ldr	r3, [r7, #0]
 80023ba:	68db      	ldr	r3, [r3, #12]
 80023bc:	330c      	adds	r3, #12
 80023be:	623b      	str	r3, [r7, #32]
 80023c0:	e01a      	b.n	80023f8 <HAL_GPIO_Init+0x130>
 80023c2:	683b      	ldr	r3, [r7, #0]
 80023c4:	689b      	ldr	r3, [r3, #8]
 80023c6:	2b00      	cmp	r3, #0
 80023c8:	d102      	bne.n	80023d0 <HAL_GPIO_Init+0x108>
 80023ca:	2304      	movs	r3, #4
 80023cc:	623b      	str	r3, [r7, #32]
 80023ce:	e013      	b.n	80023f8 <HAL_GPIO_Init+0x130>
 80023d0:	683b      	ldr	r3, [r7, #0]
 80023d2:	689b      	ldr	r3, [r3, #8]
 80023d4:	2b01      	cmp	r3, #1
 80023d6:	d105      	bne.n	80023e4 <HAL_GPIO_Init+0x11c>
 80023d8:	2308      	movs	r3, #8
 80023da:	623b      	str	r3, [r7, #32]
 80023dc:	687b      	ldr	r3, [r7, #4]
 80023de:	69fa      	ldr	r2, [r7, #28]
 80023e0:	611a      	str	r2, [r3, #16]
 80023e2:	e009      	b.n	80023f8 <HAL_GPIO_Init+0x130>
 80023e4:	2308      	movs	r3, #8
 80023e6:	623b      	str	r3, [r7, #32]
 80023e8:	687b      	ldr	r3, [r7, #4]
 80023ea:	69fa      	ldr	r2, [r7, #28]
 80023ec:	615a      	str	r2, [r3, #20]
 80023ee:	e003      	b.n	80023f8 <HAL_GPIO_Init+0x130>
 80023f0:	2300      	movs	r3, #0
 80023f2:	623b      	str	r3, [r7, #32]
 80023f4:	e000      	b.n	80023f8 <HAL_GPIO_Init+0x130>
 80023f6:	bf00      	nop
 80023f8:	69bb      	ldr	r3, [r7, #24]
 80023fa:	2bff      	cmp	r3, #255	; 0xff
 80023fc:	d801      	bhi.n	8002402 <HAL_GPIO_Init+0x13a>
 80023fe:	687b      	ldr	r3, [r7, #4]
 8002400:	e001      	b.n	8002406 <HAL_GPIO_Init+0x13e>
 8002402:	687b      	ldr	r3, [r7, #4]
 8002404:	3304      	adds	r3, #4
 8002406:	617b      	str	r3, [r7, #20]
 8002408:	69bb      	ldr	r3, [r7, #24]
 800240a:	2bff      	cmp	r3, #255	; 0xff
 800240c:	d802      	bhi.n	8002414 <HAL_GPIO_Init+0x14c>
 800240e:	6a7b      	ldr	r3, [r7, #36]	; 0x24
 8002410:	009b      	lsls	r3, r3, #2
 8002412:	e002      	b.n	800241a <HAL_GPIO_Init+0x152>
 8002414:	6a7b      	ldr	r3, [r7, #36]	; 0x24
 8002416:	3b08      	subs	r3, #8
 8002418:	009b      	lsls	r3, r3, #2
 800241a:	613b      	str	r3, [r7, #16]
 800241c:	697b      	ldr	r3, [r7, #20]
 800241e:	681a      	ldr	r2, [r3, #0]
 8002420:	210f      	movs	r1, #15
 8002422:	693b      	ldr	r3, [r7, #16]
 8002424:	fa01 f303 	lsl.w	r3, r1, r3
 8002428:	43db      	mvns	r3, r3
 800242a:	401a      	ands	r2, r3
 800242c:	6a39      	ldr	r1, [r7, #32]
 800242e:	693b      	ldr	r3, [r7, #16]
 8002430:	fa01 f303 	lsl.w	r3, r1, r3
 8002434:	431a      	orrs	r2, r3
 8002436:	697b      	ldr	r3, [r7, #20]
 8002438:	601a      	str	r2, [r3, #0]
 800243a:	683b      	ldr	r3, [r7, #0]
 800243c:	685b      	ldr	r3, [r3, #4]
 800243e:	f003 5380 	and.w	r3, r3, #268435456	; 0x10000000
 8002442:	2b00      	cmp	r3, #0
 8002444:	f000 80b1 	beq.w	80025aa <HAL_GPIO_Init+0x2e2>
 8002448:	4b4d      	ldr	r3, [pc, #308]	; (8002580 <HAL_GPIO_Init+0x2b8>)
 800244a:	699b      	ldr	r3, [r3, #24]
 800244c:	4a4c      	ldr	r2, [pc, #304]	; (8002580 <HAL_GPIO_Init+0x2b8>)
 800244e:	f043 0301 	orr.w	r3, r3, #1
 8002452:	6193      	str	r3, [r2, #24]
 8002454:	4b4a      	ldr	r3, [pc, #296]	; (8002580 <HAL_GPIO_Init+0x2b8>)
 8002456:	699b      	ldr	r3, [r3, #24]
 8002458:	f003 0301 	and.w	r3, r3, #1
 800245c:	60bb      	str	r3, [r7, #8]
 800245e:	68bb      	ldr	r3, [r7, #8]
 8002460:	4a48      	ldr	r2, [pc, #288]	; (8002584 <HAL_GPIO_Init+0x2bc>)
 8002462:	6a7b      	ldr	r3, [r7, #36]	; 0x24
 8002464:	089b      	lsrs	r3, r3, #2
 8002466:	3302      	adds	r3, #2
 8002468:	f852 3023 	ldr.w	r3, [r2, r3, lsl #2]
 800246c:	60fb      	str	r3, [r7, #12]
 800246e:	6a7b      	ldr	r3, [r7, #36]	; 0x24
 8002470:	f003 0303 	and.w	r3, r3, #3
 8002474:	009b      	lsls	r3, r3, #2
 8002476:	220f      	movs	r2, #15
 8002478:	fa02 f303 	lsl.w	r3, r2, r3
 800247c:	43db      	mvns	r3, r3
 800247e:	68fa      	ldr	r2, [r7, #12]
 8002480:	4013      	ands	r3, r2
 8002482:	60fb      	str	r3, [r7, #12]
 8002484:	687b      	ldr	r3, [r7, #4]
 8002486:	4a40      	ldr	r2, [pc, #256]	; (8002588 <HAL_GPIO_Init+0x2c0>)
 8002488:	4293      	cmp	r3, r2
 800248a:	d013      	beq.n	80024b4 <HAL_GPIO_Init+0x1ec>
 800248c:	687b      	ldr	r3, [r7, #4]
 800248e:	4a3f      	ldr	r2, [pc, #252]	; (800258c <HAL_GPIO_Init+0x2c4>)
 8002490:	4293      	cmp	r3, r2
 8002492:	d00d      	beq.n	80024b0 <HAL_GPIO_Init+0x1e8>
 8002494:	687b      	ldr	r3, [r7, #4]
 8002496:	4a3e      	ldr	r2, [pc, #248]	; (8002590 <HAL_GPIO_Init+0x2c8>)
 8002498:	4293      	cmp	r3, r2
 800249a:	d007      	beq.n	80024ac <HAL_GPIO_Init+0x1e4>
 800249c:	687b      	ldr	r3, [r7, #4]
 800249e:	4a3d      	ldr	r2, [pc, #244]	; (8002594 <HAL_GPIO_Init+0x2cc>)
 80024a0:	4293      	cmp	r3, r2
 80024a2:	d101      	bne.n	80024a8 <HAL_GPIO_Init+0x1e0>
 80024a4:	2303      	movs	r3, #3
 80024a6:	e006      	b.n	80024b6 <HAL_GPIO_Init+0x1ee>
 80024a8:	2304      	movs	r3, #4
 80024aa:	e004      	b.n	80024b6 <HAL_GPIO_Init+0x1ee>
 80024ac:	2302      	movs	r3, #2
 80024ae:	e002      	b.n	80024b6 <HAL_GPIO_Init+0x1ee>
 80024b0:	2301      	movs	r3, #1
 80024b2:	e000      	b.n	80024b6 <HAL_GPIO_Init+0x1ee>
 80024b4:	2300      	movs	r3, #0
 80024b6:	6a7a      	ldr	r2, [r7, #36]	; 0x24
 80024b8:	f002 0203 	and.w	r2, r2, #3
 80024bc:	0092      	lsls	r2, r2, #2
 80024be:	4093      	lsls	r3, r2
 80024c0:	68fa      	ldr	r2, [r7, #12]
 80024c2:	4313      	orrs	r3, r2
 80024c4:	60fb      	str	r3, [r7, #12]
 80024c6:	492f      	ldr	r1, [pc, #188]	; (8002584 <HAL_GPIO_Init+0x2bc>)
 80024c8:	6a7b      	ldr	r3, [r7, #36]	; 0x24
 80024ca:	089b      	lsrs	r3, r3, #2
 80024cc:	3302      	adds	r3, #2
 80024ce:	68fa      	ldr	r2, [r7, #12]
 80024d0:	f841 2023 	str.w	r2, [r1, r3, lsl #2]
 80024d4:	683b      	ldr	r3, [r7, #0]
 80024d6:	685b      	ldr	r3, [r3, #4]
 80024d8:	f403 3380 	and.w	r3, r3, #65536	; 0x10000
 80024dc:	2b00      	cmp	r3, #0
 80024de:	d006      	beq.n	80024ee <HAL_GPIO_Init+0x226>
 80024e0:	4b2d      	ldr	r3, [pc, #180]	; (8002598 <HAL_GPIO_Init+0x2d0>)
 80024e2:	681a      	ldr	r2, [r3, #0]
 80024e4:	492c      	ldr	r1, [pc, #176]	; (8002598 <HAL_GPIO_Init+0x2d0>)
 80024e6:	69bb      	ldr	r3, [r7, #24]
 80024e8:	4313      	orrs	r3, r2
 80024ea:	600b      	str	r3, [r1, #0]
 80024ec:	e006      	b.n	80024fc <HAL_GPIO_Init+0x234>
 80024ee:	4b2a      	ldr	r3, [pc, #168]	; (8002598 <HAL_GPIO_Init+0x2d0>)
 80024f0:	681a      	ldr	r2, [r3, #0]
 80024f2:	69bb      	ldr	r3, [r7, #24]
 80024f4:	43db      	mvns	r3, r3
 80024f6:	4928      	ldr	r1, [pc, #160]	; (8002598 <HAL_GPIO_Init+0x2d0>)
 80024f8:	4013      	ands	r3, r2
 80024fa:	600b      	str	r3, [r1, #0]
 80024fc:	683b      	ldr	r3, [r7, #0]
 80024fe:	685b      	ldr	r3, [r3, #4]
 8002500:	f403 3300 	and.w	r3, r3, #131072	; 0x20000
 8002504:	2b00      	cmp	r3, #0
 8002506:	d006      	beq.n	8002516 <HAL_GPIO_Init+0x24e>
 8002508:	4b23      	ldr	r3, [pc, #140]	; (8002598 <HAL_GPIO_Init+0x2d0>)
 800250a:	685a      	ldr	r2, [r3, #4]
 800250c:	4922      	ldr	r1, [pc, #136]	; (8002598 <HAL_GPIO_Init+0x2d0>)
 800250e:	69bb      	ldr	r3, [r7, #24]
 8002510:	4313      	orrs	r3, r2
 8002512:	604b      	str	r3, [r1, #4]
 8002514:	e006      	b.n	8002524 <HAL_GPIO_Init+0x25c>
 8002516:	4b20      	ldr	r3, [pc, #128]	; (8002598 <HAL_GPIO_Init+0x2d0>)
 8002518:	685a      	ldr	r2, [r3, #4]
 800251a:	69bb      	ldr	r3, [r7, #24]
 800251c:	43db      	mvns	r3, r3
 800251e:	491e      	ldr	r1, [pc, #120]	; (8002598 <HAL_GPIO_Init+0x2d0>)
 8002520:	4013      	ands	r3, r2
 8002522:	604b      	str	r3, [r1, #4]
 8002524:	683b      	ldr	r3, [r7, #0]
 8002526:	685b      	ldr	r3, [r3, #4]
 8002528:	f403 1380 	and.w	r3, r3, #1048576	; 0x100000
 800252c:	2b00      	cmp	r3, #0
 800252e:	d006      	beq.n	800253e <HAL_GPIO_Init+0x276>
 8002530:	4b19      	ldr	r3, [pc, #100]	; (8002598 <HAL_GPIO_Init+0x2d0>)
 8002532:	689a      	ldr	r2, [r3, #8]
 8002534:	4918      	ldr	r1, [pc, #96]	; (8002598 <HAL_GPIO_Init+0x2d0>)
 8002536:	69bb      	ldr	r3, [r7, #24]
 8002538:	4313      	orrs	r3, r2
 800253a:	608b      	str	r3, [r1, #8]
 800253c:	e006      	b.n	800254c <HAL_GPIO_Init+0x284>
 800253e:	4b16      	ldr	r3, [pc, #88]	; (8002598 <HAL_GPIO_Init+0x2d0>)
 8002540:	689a      	ldr	r2, [r3, #8]
 8002542:	69bb      	ldr	r3, [r7, #24]
 8002544:	43db      	mvns	r3, r3
 8002546:	4914      	ldr	r1, [pc, #80]	; (8002598 <HAL_GPIO_Init+0x2d0>)
 8002548:	4013      	ands	r3, r2
 800254a:	608b      	str	r3, [r1, #8]
 800254c:	683b      	ldr	r3, [r7, #0]
 800254e:	685b      	ldr	r3, [r3, #4]
 8002550:	f403 1300 	and.w	r3, r3, #2097152	; 0x200000
 8002554:	2b00      	cmp	r3, #0
 8002556:	d021      	beq.n	800259c <HAL_GPIO_Init+0x2d4>
 8002558:	4b0f      	ldr	r3, [pc, #60]	; (8002598 <HAL_GPIO_Init+0x2d0>)
 800255a:	68da      	ldr	r2, [r3, #12]
 800255c:	490e      	ldr	r1, [pc, #56]	; (8002598 <HAL_GPIO_Init+0x2d0>)
 800255e:	69bb      	ldr	r3, [r7, #24]
 8002560:	4313      	orrs	r3, r2
 8002562:	60cb      	str	r3, [r1, #12]
 8002564:	e021      	b.n	80025aa <HAL_GPIO_Init+0x2e2>
 8002566:	bf00      	nop
 8002568:	10320000 	.word	0x10320000
 800256c:	10310000 	.word	0x10310000
 8002570:	10220000 	.word	0x10220000
 8002574:	10210000 	.word	0x10210000
 8002578:	10120000 	.word	0x10120000
 800257c:	10110000 	.word	0x10110000
 8002580:	40021000 	.word	0x40021000
 8002584:	40010000 	.word	0x40010000
 8002588:	40010800 	.word	0x40010800
 800258c:	40010c00 	.word	0x40010c00
 8002590:	40011000 	.word	0x40011000
 8002594:	40011400 	.word	0x40011400
 8002598:	40010400 	.word	0x40010400
 800259c:	4b0b      	ldr	r3, [pc, #44]	; (80025cc <HAL_GPIO_Init+0x304>)
 800259e:	68da      	ldr	r2, [r3, #12]
 80025a0:	69bb      	ldr	r3, [r7, #24]
 80025a2:	43db      	mvns	r3, r3
 80025a4:	4909      	ldr	r1, [pc, #36]	; (80025cc <HAL_GPIO_Init+0x304>)
 80025a6:	4013      	ands	r3, r2
 80025a8:	60cb      	str	r3, [r1, #12]
 80025aa:	6a7b      	ldr	r3, [r7, #36]	; 0x24
 80025ac:	3301      	adds	r3, #1
 80025ae:	627b      	str	r3, [r7, #36]	; 0x24
 80025b0:	683b      	ldr	r3, [r7, #0]
 80025b2:	681a      	ldr	r2, [r3, #0]
 80025b4:	6a7b      	ldr	r3, [r7, #36]	; 0x24
 80025b6:	fa22 f303 	lsr.w	r3, r2, r3
 80025ba:	2b00      	cmp	r3, #0
 80025bc:	f47f ae8e 	bne.w	80022dc <HAL_GPIO_Init+0x14>
 80025c0:	bf00      	nop
 80025c2:	bf00      	nop
 80025c4:	372c      	adds	r7, #44	; 0x2c
 80025c6:	46bd      	mov	sp, r7
 80025c8:	bc80      	pop	{r7}
 80025ca:	4770      	bx	lr
 80025cc:	40010400 	.word	0x40010400

080025d0 <HAL_GPIO_ReadPin>:
 80025d0:	b480      	push	{r7}
 80025d2:	b085      	sub	sp, #20
 80025d4:	af00      	add	r7, sp, #0
 80025d6:	6078      	str	r0, [r7, #4]
 80025d8:	460b      	mov	r3, r1
 80025da:	807b      	strh	r3, [r7, #2]
 80025dc:	687b      	ldr	r3, [r7, #4]
 80025de:	689a      	ldr	r2, [r3, #8]
 80025e0:	887b      	ldrh	r3, [r7, #2]
 80025e2:	4013      	ands	r3, r2
 80025e4:	2b00      	cmp	r3, #0
 80025e6:	d002      	beq.n	80025ee <HAL_GPIO_ReadPin+0x1e>
 80025e8:	2301      	movs	r3, #1
 80025ea:	73fb      	strb	r3, [r7, #15]
 80025ec:	e001      	b.n	80025f2 <HAL_GPIO_ReadPin+0x22>
 80025ee:	2300      	movs	r3, #0
 80025f0:	73fb      	strb	r3, [r7, #15]
 80025f2:	7bfb      	ldrb	r3, [r7, #15]
 80025f4:	4618      	mov	r0, r3
 80025f6:	3714      	adds	r7, #20
 80025f8:	46bd      	mov	sp, r7
 80025fa:	bc80      	pop	{r7}
 80025fc:	4770      	bx	lr

080025fe <HAL_GPIO_WritePin>:
 80025fe:	b480      	push	{r7}
 8002600:	b083      	sub	sp, #12
 8002602:	af00      	add	r7, sp, #0
 8002604:	6078      	str	r0, [r7, #4]
 8002606:	460b      	mov	r3, r1
 8002608:	807b      	strh	r3, [r7, #2]
 800260a:	4613      	mov	r3, r2
 800260c:	707b      	strb	r3, [r7, #1]
 800260e:	787b      	ldrb	r3, [r7, #1]
 8002610:	2b00      	cmp	r3, #0
 8002612:	d003      	beq.n	800261c <HAL_GPIO_WritePin+0x1e>
 8002614:	887a      	ldrh	r2, [r7, #2]
 8002616:	687b      	ldr	r3, [r7, #4]
 8002618:	611a      	str	r2, [r3, #16]
 800261a:	e003      	b.n	8002624 <HAL_GPIO_WritePin+0x26>
 800261c:	887b      	ldrh	r3, [r7, #2]
 800261e:	041a      	lsls	r2, r3, #16
 8002620:	687b      	ldr	r3, [r7, #4]
 8002622:	611a      	str	r2, [r3, #16]
 8002624:	bf00      	nop
 8002626:	370c      	adds	r7, #12
 8002628:	46bd      	mov	sp, r7
 800262a:	bc80      	pop	{r7}
 800262c:	4770      	bx	lr
	...

08002630 <HAL_I2C_Init>:
 8002630:	b580      	push	{r7, lr}
 8002632:	b084      	sub	sp, #16
 8002634:	af00      	add	r7, sp, #0
 8002636:	6078      	str	r0, [r7, #4]
 8002638:	687b      	ldr	r3, [r7, #4]
 800263a:	2b00      	cmp	r3, #0
 800263c:	d101      	bne.n	8002642 <HAL_I2C_Init+0x12>
 800263e:	2301      	movs	r3, #1
 8002640:	e12b      	b.n	800289a <HAL_I2C_Init+0x26a>
 8002642:	687b      	ldr	r3, [r7, #4]
 8002644:	f893 303d 	ldrb.w	r3, [r3, #61]	; 0x3d
 8002648:	b2db      	uxtb	r3, r3
 800264a:	2b00      	cmp	r3, #0
 800264c:	d106      	bne.n	800265c <HAL_I2C_Init+0x2c>
 800264e:	687b      	ldr	r3, [r7, #4]
 8002650:	2200      	movs	r2, #0
 8002652:	f883 203c 	strb.w	r2, [r3, #60]	; 0x3c
 8002656:	6878      	ldr	r0, [r7, #4]
 8002658:	f7fe fd36 	bl	80010c8 <HAL_I2C_MspInit>
 800265c:	687b      	ldr	r3, [r7, #4]
 800265e:	2224      	movs	r2, #36	; 0x24
 8002660:	f883 203d 	strb.w	r2, [r3, #61]	; 0x3d
 8002664:	687b      	ldr	r3, [r7, #4]
 8002666:	681b      	ldr	r3, [r3, #0]
 8002668:	681a      	ldr	r2, [r3, #0]
 800266a:	687b      	ldr	r3, [r7, #4]
 800266c:	681b      	ldr	r3, [r3, #0]
 800266e:	f022 0201 	bic.w	r2, r2, #1
 8002672:	601a      	str	r2, [r3, #0]
 8002674:	687b      	ldr	r3, [r7, #4]
 8002676:	681b      	ldr	r3, [r3, #0]
 8002678:	681a      	ldr	r2, [r3, #0]
 800267a:	687b      	ldr	r3, [r7, #4]
 800267c:	681b      	ldr	r3, [r3, #0]
 800267e:	f442 4200 	orr.w	r2, r2, #32768	; 0x8000
 8002682:	601a      	str	r2, [r3, #0]
 8002684:	687b      	ldr	r3, [r7, #4]
 8002686:	681b      	ldr	r3, [r3, #0]
 8002688:	681a      	ldr	r2, [r3, #0]
 800268a:	687b      	ldr	r3, [r7, #4]
 800268c:	681b      	ldr	r3, [r3, #0]
 800268e:	f422 4200 	bic.w	r2, r2, #32768	; 0x8000
 8002692:	601a      	str	r2, [r3, #0]
 8002694:	f000 fff6 	bl	8003684 <HAL_RCC_GetPCLK1Freq>
 8002698:	60f8      	str	r0, [r7, #12]
 800269a:	687b      	ldr	r3, [r7, #4]
 800269c:	685b      	ldr	r3, [r3, #4]
 800269e:	4a81      	ldr	r2, [pc, #516]	; (80028a4 <HAL_I2C_Init+0x274>)
 80026a0:	4293      	cmp	r3, r2
 80026a2:	d807      	bhi.n	80026b4 <HAL_I2C_Init+0x84>
 80026a4:	68fb      	ldr	r3, [r7, #12]
 80026a6:	4a80      	ldr	r2, [pc, #512]	; (80028a8 <HAL_I2C_Init+0x278>)
 80026a8:	4293      	cmp	r3, r2
 80026aa:	bf94      	ite	ls
 80026ac:	2301      	movls	r3, #1
 80026ae:	2300      	movhi	r3, #0
 80026b0:	b2db      	uxtb	r3, r3
 80026b2:	e006      	b.n	80026c2 <HAL_I2C_Init+0x92>
 80026b4:	68fb      	ldr	r3, [r7, #12]
 80026b6:	4a7d      	ldr	r2, [pc, #500]	; (80028ac <HAL_I2C_Init+0x27c>)
 80026b8:	4293      	cmp	r3, r2
 80026ba:	bf94      	ite	ls
 80026bc:	2301      	movls	r3, #1
 80026be:	2300      	movhi	r3, #0
 80026c0:	b2db      	uxtb	r3, r3
 80026c2:	2b00      	cmp	r3, #0
 80026c4:	d001      	beq.n	80026ca <HAL_I2C_Init+0x9a>
 80026c6:	2301      	movs	r3, #1
 80026c8:	e0e7      	b.n	800289a <HAL_I2C_Init+0x26a>
 80026ca:	68fb      	ldr	r3, [r7, #12]
 80026cc:	4a78      	ldr	r2, [pc, #480]	; (80028b0 <HAL_I2C_Init+0x280>)
 80026ce:	fba2 2303 	umull	r2, r3, r2, r3
 80026d2:	0c9b      	lsrs	r3, r3, #18
 80026d4:	60bb      	str	r3, [r7, #8]
 80026d6:	687b      	ldr	r3, [r7, #4]
 80026d8:	681b      	ldr	r3, [r3, #0]
 80026da:	685b      	ldr	r3, [r3, #4]
 80026dc:	f023 013f 	bic.w	r1, r3, #63	; 0x3f
 80026e0:	687b      	ldr	r3, [r7, #4]
 80026e2:	681b      	ldr	r3, [r3, #0]
 80026e4:	68ba      	ldr	r2, [r7, #8]
 80026e6:	430a      	orrs	r2, r1
 80026e8:	605a      	str	r2, [r3, #4]
 80026ea:	687b      	ldr	r3, [r7, #4]
 80026ec:	681b      	ldr	r3, [r3, #0]
 80026ee:	6a1b      	ldr	r3, [r3, #32]
 80026f0:	f023 013f 	bic.w	r1, r3, #63	; 0x3f
 80026f4:	687b      	ldr	r3, [r7, #4]
 80026f6:	685b      	ldr	r3, [r3, #4]
 80026f8:	4a6a      	ldr	r2, [pc, #424]	; (80028a4 <HAL_I2C_Init+0x274>)
 80026fa:	4293      	cmp	r3, r2
 80026fc:	d802      	bhi.n	8002704 <HAL_I2C_Init+0xd4>
 80026fe:	68bb      	ldr	r3, [r7, #8]
 8002700:	3301      	adds	r3, #1
 8002702:	e009      	b.n	8002718 <HAL_I2C_Init+0xe8>
 8002704:	68bb      	ldr	r3, [r7, #8]
 8002706:	f44f 7296 	mov.w	r2, #300	; 0x12c
 800270a:	fb02 f303 	mul.w	r3, r2, r3
 800270e:	4a69      	ldr	r2, [pc, #420]	; (80028b4 <HAL_I2C_Init+0x284>)
 8002710:	fba2 2303 	umull	r2, r3, r2, r3
 8002714:	099b      	lsrs	r3, r3, #6
 8002716:	3301      	adds	r3, #1
 8002718:	687a      	ldr	r2, [r7, #4]
 800271a:	6812      	ldr	r2, [r2, #0]
 800271c:	430b      	orrs	r3, r1
 800271e:	6213      	str	r3, [r2, #32]
 8002720:	687b      	ldr	r3, [r7, #4]
 8002722:	681b      	ldr	r3, [r3, #0]
 8002724:	69db      	ldr	r3, [r3, #28]
 8002726:	f423 424f 	bic.w	r2, r3, #52992	; 0xcf00
 800272a:	f022 02ff 	bic.w	r2, r2, #255	; 0xff
 800272e:	687b      	ldr	r3, [r7, #4]
 8002730:	685b      	ldr	r3, [r3, #4]
 8002732:	495c      	ldr	r1, [pc, #368]	; (80028a4 <HAL_I2C_Init+0x274>)
 8002734:	428b      	cmp	r3, r1
 8002736:	d819      	bhi.n	800276c <HAL_I2C_Init+0x13c>
 8002738:	68fb      	ldr	r3, [r7, #12]
 800273a:	1e59      	subs	r1, r3, #1
 800273c:	687b      	ldr	r3, [r7, #4]
 800273e:	685b      	ldr	r3, [r3, #4]
 8002740:	005b      	lsls	r3, r3, #1
 8002742:	fbb1 f3f3 	udiv	r3, r1, r3
 8002746:	1c59      	adds	r1, r3, #1
 8002748:	f640 73fc 	movw	r3, #4092	; 0xffc
 800274c:	400b      	ands	r3, r1
 800274e:	2b00      	cmp	r3, #0
 8002750:	d00a      	beq.n	8002768 <HAL_I2C_Init+0x138>
 8002752:	68fb      	ldr	r3, [r7, #12]
 8002754:	1e59      	subs	r1, r3, #1
 8002756:	687b      	ldr	r3, [r7, #4]
 8002758:	685b      	ldr	r3, [r3, #4]
 800275a:	005b      	lsls	r3, r3, #1
 800275c:	fbb1 f3f3 	udiv	r3, r1, r3
 8002760:	3301      	adds	r3, #1
 8002762:	f3c3 030b 	ubfx	r3, r3, #0, #12
 8002766:	e051      	b.n	800280c <HAL_I2C_Init+0x1dc>
 8002768:	2304      	movs	r3, #4
 800276a:	e04f      	b.n	800280c <HAL_I2C_Init+0x1dc>
 800276c:	687b      	ldr	r3, [r7, #4]
 800276e:	689b      	ldr	r3, [r3, #8]
 8002770:	2b00      	cmp	r3, #0
 8002772:	d111      	bne.n	8002798 <HAL_I2C_Init+0x168>
 8002774:	68fb      	ldr	r3, [r7, #12]
 8002776:	1e58      	subs	r0, r3, #1
 8002778:	687b      	ldr	r3, [r7, #4]
 800277a:	6859      	ldr	r1, [r3, #4]
 800277c:	460b      	mov	r3, r1
 800277e:	005b      	lsls	r3, r3, #1
 8002780:	440b      	add	r3, r1
 8002782:	fbb0 f3f3 	udiv	r3, r0, r3
 8002786:	3301      	adds	r3, #1
 8002788:	f3c3 030b 	ubfx	r3, r3, #0, #12
 800278c:	2b00      	cmp	r3, #0
 800278e:	bf0c      	ite	eq
 8002790:	2301      	moveq	r3, #1
 8002792:	2300      	movne	r3, #0
 8002794:	b2db      	uxtb	r3, r3
 8002796:	e012      	b.n	80027be <HAL_I2C_Init+0x18e>
 8002798:	68fb      	ldr	r3, [r7, #12]
 800279a:	1e58      	subs	r0, r3, #1
 800279c:	687b      	ldr	r3, [r7, #4]
 800279e:	6859      	ldr	r1, [r3, #4]
 80027a0:	460b      	mov	r3, r1
 80027a2:	009b      	lsls	r3, r3, #2
 80027a4:	440b      	add	r3, r1
 80027a6:	0099      	lsls	r1, r3, #2
 80027a8:	440b      	add	r3, r1
 80027aa:	fbb0 f3f3 	udiv	r3, r0, r3
 80027ae:	3301      	adds	r3, #1
 80027b0:	f3c3 030b 	ubfx	r3, r3, #0, #12
 80027b4:	2b00      	cmp	r3, #0
 80027b6:	bf0c      	ite	eq
 80027b8:	2301      	moveq	r3, #1
 80027ba:	2300      	movne	r3, #0
 80027bc:	b2db      	uxtb	r3, r3
 80027be:	2b00      	cmp	r3, #0
 80027c0:	d001      	beq.n	80027c6 <HAL_I2C_Init+0x196>
 80027c2:	2301      	movs	r3, #1
 80027c4:	e022      	b.n	800280c <HAL_I2C_Init+0x1dc>
 80027c6:	687b      	ldr	r3, [r7, #4]
 80027c8:	689b      	ldr	r3, [r3, #8]
 80027ca:	2b00      	cmp	r3, #0
 80027cc:	d10e      	bne.n	80027ec <HAL_I2C_Init+0x1bc>
 80027ce:	68fb      	ldr	r3, [r7, #12]
 80027d0:	1e58      	subs	r0, r3, #1
 80027d2:	687b      	ldr	r3, [r7, #4]
 80027d4:	6859      	ldr	r1, [r3, #4]
 80027d6:	460b      	mov	r3, r1
 80027d8:	005b      	lsls	r3, r3, #1
 80027da:	440b      	add	r3, r1
 80027dc:	fbb0 f3f3 	udiv	r3, r0, r3
 80027e0:	3301      	adds	r3, #1
 80027e2:	f3c3 030b 	ubfx	r3, r3, #0, #12
 80027e6:	f443 4300 	orr.w	r3, r3, #32768	; 0x8000
 80027ea:	e00f      	b.n	800280c <HAL_I2C_Init+0x1dc>
 80027ec:	68fb      	ldr	r3, [r7, #12]
 80027ee:	1e58      	subs	r0, r3, #1
 80027f0:	687b      	ldr	r3, [r7, #4]
 80027f2:	6859      	ldr	r1, [r3, #4]
 80027f4:	460b      	mov	r3, r1
 80027f6:	009b      	lsls	r3, r3, #2
 80027f8:	440b      	add	r3, r1
 80027fa:	0099      	lsls	r1, r3, #2
 80027fc:	440b      	add	r3, r1
 80027fe:	fbb0 f3f3 	udiv	r3, r0, r3
 8002802:	3301      	adds	r3, #1
 8002804:	f3c3 030b 	ubfx	r3, r3, #0, #12
 8002808:	f443 4340 	orr.w	r3, r3, #49152	; 0xc000
 800280c:	6879      	ldr	r1, [r7, #4]
 800280e:	6809      	ldr	r1, [r1, #0]
 8002810:	4313      	orrs	r3, r2
 8002812:	61cb      	str	r3, [r1, #28]
 8002814:	687b      	ldr	r3, [r7, #4]
 8002816:	681b      	ldr	r3, [r3, #0]
 8002818:	681b      	ldr	r3, [r3, #0]
 800281a:	f023 01c0 	bic.w	r1, r3, #192	; 0xc0
 800281e:	687b      	ldr	r3, [r7, #4]
 8002820:	69da      	ldr	r2, [r3, #28]
 8002822:	687b      	ldr	r3, [r7, #4]
 8002824:	6a1b      	ldr	r3, [r3, #32]
 8002826:	431a      	orrs	r2, r3
 8002828:	687b      	ldr	r3, [r7, #4]
 800282a:	681b      	ldr	r3, [r3, #0]
 800282c:	430a      	orrs	r2, r1
 800282e:	601a      	str	r2, [r3, #0]
 8002830:	687b      	ldr	r3, [r7, #4]
 8002832:	681b      	ldr	r3, [r3, #0]
 8002834:	689b      	ldr	r3, [r3, #8]
 8002836:	f423 4303 	bic.w	r3, r3, #33536	; 0x8300
 800283a:	f023 03ff 	bic.w	r3, r3, #255	; 0xff
 800283e:	687a      	ldr	r2, [r7, #4]
 8002840:	6911      	ldr	r1, [r2, #16]
 8002842:	687a      	ldr	r2, [r7, #4]
 8002844:	68d2      	ldr	r2, [r2, #12]
 8002846:	4311      	orrs	r1, r2
 8002848:	687a      	ldr	r2, [r7, #4]
 800284a:	6812      	ldr	r2, [r2, #0]
 800284c:	430b      	orrs	r3, r1
 800284e:	6093      	str	r3, [r2, #8]
 8002850:	687b      	ldr	r3, [r7, #4]
 8002852:	681b      	ldr	r3, [r3, #0]
 8002854:	68db      	ldr	r3, [r3, #12]
 8002856:	f023 01ff 	bic.w	r1, r3, #255	; 0xff
 800285a:	687b      	ldr	r3, [r7, #4]
 800285c:	695a      	ldr	r2, [r3, #20]
 800285e:	687b      	ldr	r3, [r7, #4]
 8002860:	699b      	ldr	r3, [r3, #24]
 8002862:	431a      	orrs	r2, r3
 8002864:	687b      	ldr	r3, [r7, #4]
 8002866:	681b      	ldr	r3, [r3, #0]
 8002868:	430a      	orrs	r2, r1
 800286a:	60da      	str	r2, [r3, #12]
 800286c:	687b      	ldr	r3, [r7, #4]
 800286e:	681b      	ldr	r3, [r3, #0]
 8002870:	681a      	ldr	r2, [r3, #0]
 8002872:	687b      	ldr	r3, [r7, #4]
 8002874:	681b      	ldr	r3, [r3, #0]
 8002876:	f042 0201 	orr.w	r2, r2, #1
 800287a:	601a      	str	r2, [r3, #0]
 800287c:	687b      	ldr	r3, [r7, #4]
 800287e:	2200      	movs	r2, #0
 8002880:	641a      	str	r2, [r3, #64]	; 0x40
 8002882:	687b      	ldr	r3, [r7, #4]
 8002884:	2220      	movs	r2, #32
 8002886:	f883 203d 	strb.w	r2, [r3, #61]	; 0x3d
 800288a:	687b      	ldr	r3, [r7, #4]
 800288c:	2200      	movs	r2, #0
 800288e:	631a      	str	r2, [r3, #48]	; 0x30
 8002890:	687b      	ldr	r3, [r7, #4]
 8002892:	2200      	movs	r2, #0
 8002894:	f883 203e 	strb.w	r2, [r3, #62]	; 0x3e
 8002898:	2300      	movs	r3, #0
 800289a:	4618      	mov	r0, r3
 800289c:	3710      	adds	r7, #16
 800289e:	46bd      	mov	sp, r7
 80028a0:	bd80      	pop	{r7, pc}
 80028a2:	bf00      	nop
 80028a4:	000186a0 	.word	0x000186a0
 80028a8:	001e847f 	.word	0x001e847f
 80028ac:	003d08ff 	.word	0x003d08ff
 80028b0:	431bde83 	.word	0x431bde83
 80028b4:	10624dd3 	.word	0x10624dd3

080028b8 <HAL_I2C_Master_Transmit>:
 80028b8:	b580      	push	{r7, lr}
 80028ba:	b088      	sub	sp, #32
 80028bc:	af02      	add	r7, sp, #8
 80028be:	60f8      	str	r0, [r7, #12]
 80028c0:	607a      	str	r2, [r7, #4]
 80028c2:	461a      	mov	r2, r3
 80028c4:	460b      	mov	r3, r1
 80028c6:	817b      	strh	r3, [r7, #10]
 80028c8:	4613      	mov	r3, r2
 80028ca:	813b      	strh	r3, [r7, #8]
 80028cc:	f7ff fbc0 	bl	8002050 <HAL_GetTick>
 80028d0:	6178      	str	r0, [r7, #20]
 80028d2:	68fb      	ldr	r3, [r7, #12]
 80028d4:	f893 303d 	ldrb.w	r3, [r3, #61]	; 0x3d
 80028d8:	b2db      	uxtb	r3, r3
 80028da:	2b20      	cmp	r3, #32
 80028dc:	f040 80e0 	bne.w	8002aa0 <HAL_I2C_Master_Transmit+0x1e8>
 80028e0:	697b      	ldr	r3, [r7, #20]
 80028e2:	9300      	str	r3, [sp, #0]
 80028e4:	2319      	movs	r3, #25
 80028e6:	2201      	movs	r2, #1
 80028e8:	4970      	ldr	r1, [pc, #448]	; (8002aac <HAL_I2C_Master_Transmit+0x1f4>)
 80028ea:	68f8      	ldr	r0, [r7, #12]
 80028ec:	f000 f964 	bl	8002bb8 <I2C_WaitOnFlagUntilTimeout>
 80028f0:	4603      	mov	r3, r0
 80028f2:	2b00      	cmp	r3, #0
 80028f4:	d001      	beq.n	80028fa <HAL_I2C_Master_Transmit+0x42>
 80028f6:	2302      	movs	r3, #2
 80028f8:	e0d3      	b.n	8002aa2 <HAL_I2C_Master_Transmit+0x1ea>
 80028fa:	68fb      	ldr	r3, [r7, #12]
 80028fc:	f893 303c 	ldrb.w	r3, [r3, #60]	; 0x3c
 8002900:	2b01      	cmp	r3, #1
 8002902:	d101      	bne.n	8002908 <HAL_I2C_Master_Transmit+0x50>
 8002904:	2302      	movs	r3, #2
 8002906:	e0cc      	b.n	8002aa2 <HAL_I2C_Master_Transmit+0x1ea>
 8002908:	68fb      	ldr	r3, [r7, #12]
 800290a:	2201      	movs	r2, #1
 800290c:	f883 203c 	strb.w	r2, [r3, #60]	; 0x3c
 8002910:	68fb      	ldr	r3, [r7, #12]
 8002912:	681b      	ldr	r3, [r3, #0]
 8002914:	681b      	ldr	r3, [r3, #0]
 8002916:	f003 0301 	and.w	r3, r3, #1
 800291a:	2b01      	cmp	r3, #1
 800291c:	d007      	beq.n	800292e <HAL_I2C_Master_Transmit+0x76>
 800291e:	68fb      	ldr	r3, [r7, #12]
 8002920:	681b      	ldr	r3, [r3, #0]
 8002922:	681a      	ldr	r2, [r3, #0]
 8002924:	68fb      	ldr	r3, [r7, #12]
 8002926:	681b      	ldr	r3, [r3, #0]
 8002928:	f042 0201 	orr.w	r2, r2, #1
 800292c:	601a      	str	r2, [r3, #0]
 800292e:	68fb      	ldr	r3, [r7, #12]
 8002930:	681b      	ldr	r3, [r3, #0]
 8002932:	681a      	ldr	r2, [r3, #0]
 8002934:	68fb      	ldr	r3, [r7, #12]
 8002936:	681b      	ldr	r3, [r3, #0]
 8002938:	f422 6200 	bic.w	r2, r2, #2048	; 0x800
 800293c:	601a      	str	r2, [r3, #0]
 800293e:	68fb      	ldr	r3, [r7, #12]
 8002940:	2221      	movs	r2, #33	; 0x21
 8002942:	f883 203d 	strb.w	r2, [r3, #61]	; 0x3d
 8002946:	68fb      	ldr	r3, [r7, #12]
 8002948:	2210      	movs	r2, #16
 800294a:	f883 203e 	strb.w	r2, [r3, #62]	; 0x3e
 800294e:	68fb      	ldr	r3, [r7, #12]
 8002950:	2200      	movs	r2, #0
 8002952:	641a      	str	r2, [r3, #64]	; 0x40
 8002954:	68fb      	ldr	r3, [r7, #12]
 8002956:	687a      	ldr	r2, [r7, #4]
 8002958:	625a      	str	r2, [r3, #36]	; 0x24
 800295a:	68fb      	ldr	r3, [r7, #12]
 800295c:	893a      	ldrh	r2, [r7, #8]
 800295e:	855a      	strh	r2, [r3, #42]	; 0x2a
 8002960:	68fb      	ldr	r3, [r7, #12]
 8002962:	8d5b      	ldrh	r3, [r3, #42]	; 0x2a
 8002964:	b29a      	uxth	r2, r3
 8002966:	68fb      	ldr	r3, [r7, #12]
 8002968:	851a      	strh	r2, [r3, #40]	; 0x28
 800296a:	68fb      	ldr	r3, [r7, #12]
 800296c:	4a50      	ldr	r2, [pc, #320]	; (8002ab0 <HAL_I2C_Master_Transmit+0x1f8>)
 800296e:	62da      	str	r2, [r3, #44]	; 0x2c
 8002970:	8979      	ldrh	r1, [r7, #10]
 8002972:	697b      	ldr	r3, [r7, #20]
 8002974:	6a3a      	ldr	r2, [r7, #32]
 8002976:	68f8      	ldr	r0, [r7, #12]
 8002978:	f000 f89c 	bl	8002ab4 <I2C_MasterRequestWrite>
 800297c:	4603      	mov	r3, r0
 800297e:	2b00      	cmp	r3, #0
 8002980:	d001      	beq.n	8002986 <HAL_I2C_Master_Transmit+0xce>
 8002982:	2301      	movs	r3, #1
 8002984:	e08d      	b.n	8002aa2 <HAL_I2C_Master_Transmit+0x1ea>
 8002986:	2300      	movs	r3, #0
 8002988:	613b      	str	r3, [r7, #16]
 800298a:	68fb      	ldr	r3, [r7, #12]
 800298c:	681b      	ldr	r3, [r3, #0]
 800298e:	695b      	ldr	r3, [r3, #20]
 8002990:	613b      	str	r3, [r7, #16]
 8002992:	68fb      	ldr	r3, [r7, #12]
 8002994:	681b      	ldr	r3, [r3, #0]
 8002996:	699b      	ldr	r3, [r3, #24]
 8002998:	613b      	str	r3, [r7, #16]
 800299a:	693b      	ldr	r3, [r7, #16]
 800299c:	e066      	b.n	8002a6c <HAL_I2C_Master_Transmit+0x1b4>
 800299e:	697a      	ldr	r2, [r7, #20]
 80029a0:	6a39      	ldr	r1, [r7, #32]
 80029a2:	68f8      	ldr	r0, [r7, #12]
 80029a4:	f000 f9de 	bl	8002d64 <I2C_WaitOnTXEFlagUntilTimeout>
 80029a8:	4603      	mov	r3, r0
 80029aa:	2b00      	cmp	r3, #0
 80029ac:	d00d      	beq.n	80029ca <HAL_I2C_Master_Transmit+0x112>
 80029ae:	68fb      	ldr	r3, [r7, #12]
 80029b0:	6c1b      	ldr	r3, [r3, #64]	; 0x40
 80029b2:	2b04      	cmp	r3, #4
 80029b4:	d107      	bne.n	80029c6 <HAL_I2C_Master_Transmit+0x10e>
 80029b6:	68fb      	ldr	r3, [r7, #12]
 80029b8:	681b      	ldr	r3, [r3, #0]
 80029ba:	681a      	ldr	r2, [r3, #0]
 80029bc:	68fb      	ldr	r3, [r7, #12]
 80029be:	681b      	ldr	r3, [r3, #0]
 80029c0:	f442 7200 	orr.w	r2, r2, #512	; 0x200
 80029c4:	601a      	str	r2, [r3, #0]
 80029c6:	2301      	movs	r3, #1
 80029c8:	e06b      	b.n	8002aa2 <HAL_I2C_Master_Transmit+0x1ea>
 80029ca:	68fb      	ldr	r3, [r7, #12]
 80029cc:	6a5b      	ldr	r3, [r3, #36]	; 0x24
 80029ce:	781a      	ldrb	r2, [r3, #0]
 80029d0:	68fb      	ldr	r3, [r7, #12]
 80029d2:	681b      	ldr	r3, [r3, #0]
 80029d4:	611a      	str	r2, [r3, #16]
 80029d6:	68fb      	ldr	r3, [r7, #12]
 80029d8:	6a5b      	ldr	r3, [r3, #36]	; 0x24
 80029da:	1c5a      	adds	r2, r3, #1
 80029dc:	68fb      	ldr	r3, [r7, #12]
 80029de:	625a      	str	r2, [r3, #36]	; 0x24
 80029e0:	68fb      	ldr	r3, [r7, #12]
 80029e2:	8d5b      	ldrh	r3, [r3, #42]	; 0x2a
 80029e4:	b29b      	uxth	r3, r3
 80029e6:	3b01      	subs	r3, #1
 80029e8:	b29a      	uxth	r2, r3
 80029ea:	68fb      	ldr	r3, [r7, #12]
 80029ec:	855a      	strh	r2, [r3, #42]	; 0x2a
 80029ee:	68fb      	ldr	r3, [r7, #12]
 80029f0:	8d1b      	ldrh	r3, [r3, #40]	; 0x28
 80029f2:	3b01      	subs	r3, #1
 80029f4:	b29a      	uxth	r2, r3
 80029f6:	68fb      	ldr	r3, [r7, #12]
 80029f8:	851a      	strh	r2, [r3, #40]	; 0x28
 80029fa:	68fb      	ldr	r3, [r7, #12]
 80029fc:	681b      	ldr	r3, [r3, #0]
 80029fe:	695b      	ldr	r3, [r3, #20]
 8002a00:	f003 0304 	and.w	r3, r3, #4
 8002a04:	2b04      	cmp	r3, #4
 8002a06:	d11b      	bne.n	8002a40 <HAL_I2C_Master_Transmit+0x188>
 8002a08:	68fb      	ldr	r3, [r7, #12]
 8002a0a:	8d1b      	ldrh	r3, [r3, #40]	; 0x28
 8002a0c:	2b00      	cmp	r3, #0
 8002a0e:	d017      	beq.n	8002a40 <HAL_I2C_Master_Transmit+0x188>
 8002a10:	68fb      	ldr	r3, [r7, #12]
 8002a12:	6a5b      	ldr	r3, [r3, #36]	; 0x24
 8002a14:	781a      	ldrb	r2, [r3, #0]
 8002a16:	68fb      	ldr	r3, [r7, #12]
 8002a18:	681b      	ldr	r3, [r3, #0]
 8002a1a:	611a      	str	r2, [r3, #16]
 8002a1c:	68fb      	ldr	r3, [r7, #12]
 8002a1e:	6a5b      	ldr	r3, [r3, #36]	; 0x24
 8002a20:	1c5a      	adds	r2, r3, #1
 8002a22:	68fb      	ldr	r3, [r7, #12]
 8002a24:	625a      	str	r2, [r3, #36]	; 0x24
 8002a26:	68fb      	ldr	r3, [r7, #12]
 8002a28:	8d5b      	ldrh	r3, [r3, #42]	; 0x2a
 8002a2a:	b29b      	uxth	r3, r3
 8002a2c:	3b01      	subs	r3, #1
 8002a2e:	b29a      	uxth	r2, r3
 8002a30:	68fb      	ldr	r3, [r7, #12]
 8002a32:	855a      	strh	r2, [r3, #42]	; 0x2a
 8002a34:	68fb      	ldr	r3, [r7, #12]
 8002a36:	8d1b      	ldrh	r3, [r3, #40]	; 0x28
 8002a38:	3b01      	subs	r3, #1
 8002a3a:	b29a      	uxth	r2, r3
 8002a3c:	68fb      	ldr	r3, [r7, #12]
 8002a3e:	851a      	strh	r2, [r3, #40]	; 0x28
 8002a40:	697a      	ldr	r2, [r7, #20]
 8002a42:	6a39      	ldr	r1, [r7, #32]
 8002a44:	68f8      	ldr	r0, [r7, #12]
 8002a46:	f000 f9ce 	bl	8002de6 <I2C_WaitOnBTFFlagUntilTimeout>
 8002a4a:	4603      	mov	r3, r0
 8002a4c:	2b00      	cmp	r3, #0
 8002a4e:	d00d      	beq.n	8002a6c <HAL_I2C_Master_Transmit+0x1b4>
 8002a50:	68fb      	ldr	r3, [r7, #12]
 8002a52:	6c1b      	ldr	r3, [r3, #64]	; 0x40
 8002a54:	2b04      	cmp	r3, #4
 8002a56:	d107      	bne.n	8002a68 <HAL_I2C_Master_Transmit+0x1b0>
 8002a58:	68fb      	ldr	r3, [r7, #12]
 8002a5a:	681b      	ldr	r3, [r3, #0]
 8002a5c:	681a      	ldr	r2, [r3, #0]
 8002a5e:	68fb      	ldr	r3, [r7, #12]
 8002a60:	681b      	ldr	r3, [r3, #0]
 8002a62:	f442 7200 	orr.w	r2, r2, #512	; 0x200
 8002a66:	601a      	str	r2, [r3, #0]
 8002a68:	2301      	movs	r3, #1
 8002a6a:	e01a      	b.n	8002aa2 <HAL_I2C_Master_Transmit+0x1ea>
 8002a6c:	68fb      	ldr	r3, [r7, #12]
 8002a6e:	8d1b      	ldrh	r3, [r3, #40]	; 0x28
 8002a70:	2b00      	cmp	r3, #0
 8002a72:	d194      	bne.n	800299e <HAL_I2C_Master_Transmit+0xe6>
 8002a74:	68fb      	ldr	r3, [r7, #12]
 8002a76:	681b      	ldr	r3, [r3, #0]
 8002a78:	681a      	ldr	r2, [r3, #0]
 8002a7a:	68fb      	ldr	r3, [r7, #12]
 8002a7c:	681b      	ldr	r3, [r3, #0]
 8002a7e:	f442 7200 	orr.w	r2, r2, #512	; 0x200
 8002a82:	601a      	str	r2, [r3, #0]
 8002a84:	68fb      	ldr	r3, [r7, #12]
 8002a86:	2220      	movs	r2, #32
 8002a88:	f883 203d 	strb.w	r2, [r3, #61]	; 0x3d
 8002a8c:	68fb      	ldr	r3, [r7, #12]
 8002a8e:	2200      	movs	r2, #0
 8002a90:	f883 203e 	strb.w	r2, [r3, #62]	; 0x3e
 8002a94:	68fb      	ldr	r3, [r7, #12]
 8002a96:	2200      	movs	r2, #0
 8002a98:	f883 203c 	strb.w	r2, [r3, #60]	; 0x3c
 8002a9c:	2300      	movs	r3, #0
 8002a9e:	e000      	b.n	8002aa2 <HAL_I2C_Master_Transmit+0x1ea>
 8002aa0:	2302      	movs	r3, #2
 8002aa2:	4618      	mov	r0, r3
 8002aa4:	3718      	adds	r7, #24
 8002aa6:	46bd      	mov	sp, r7
 8002aa8:	bd80      	pop	{r7, pc}
 8002aaa:	bf00      	nop
 8002aac:	00100002 	.word	0x00100002
 8002ab0:	ffff0000 	.word	0xffff0000

08002ab4 <I2C_MasterRequestWrite>:
 8002ab4:	b580      	push	{r7, lr}
 8002ab6:	b088      	sub	sp, #32
 8002ab8:	af02      	add	r7, sp, #8
 8002aba:	60f8      	str	r0, [r7, #12]
 8002abc:	607a      	str	r2, [r7, #4]
 8002abe:	603b      	str	r3, [r7, #0]
 8002ac0:	460b      	mov	r3, r1
 8002ac2:	817b      	strh	r3, [r7, #10]
 8002ac4:	68fb      	ldr	r3, [r7, #12]
 8002ac6:	6adb      	ldr	r3, [r3, #44]	; 0x2c
 8002ac8:	617b      	str	r3, [r7, #20]
 8002aca:	697b      	ldr	r3, [r7, #20]
 8002acc:	2b08      	cmp	r3, #8
 8002ace:	d006      	beq.n	8002ade <I2C_MasterRequestWrite+0x2a>
 8002ad0:	697b      	ldr	r3, [r7, #20]
 8002ad2:	2b01      	cmp	r3, #1
 8002ad4:	d003      	beq.n	8002ade <I2C_MasterRequestWrite+0x2a>
 8002ad6:	697b      	ldr	r3, [r7, #20]
 8002ad8:	f513 3f80 	cmn.w	r3, #65536	; 0x10000
 8002adc:	d108      	bne.n	8002af0 <I2C_MasterRequestWrite+0x3c>
 8002ade:	68fb      	ldr	r3, [r7, #12]
 8002ae0:	681b      	ldr	r3, [r3, #0]
 8002ae2:	681a      	ldr	r2, [r3, #0]
 8002ae4:	68fb      	ldr	r3, [r7, #12]
 8002ae6:	681b      	ldr	r3, [r3, #0]
 8002ae8:	f442 7280 	orr.w	r2, r2, #256	; 0x100
 8002aec:	601a      	str	r2, [r3, #0]
 8002aee:	e00b      	b.n	8002b08 <I2C_MasterRequestWrite+0x54>
 8002af0:	68fb      	ldr	r3, [r7, #12]
 8002af2:	6b1b      	ldr	r3, [r3, #48]	; 0x30
 8002af4:	2b12      	cmp	r3, #18
 8002af6:	d107      	bne.n	8002b08 <I2C_MasterRequestWrite+0x54>
 8002af8:	68fb      	ldr	r3, [r7, #12]
 8002afa:	681b      	ldr	r3, [r3, #0]
 8002afc:	681a      	ldr	r2, [r3, #0]
 8002afe:	68fb      	ldr	r3, [r7, #12]
 8002b00:	681b      	ldr	r3, [r3, #0]
 8002b02:	f442 7280 	orr.w	r2, r2, #256	; 0x100
 8002b06:	601a      	str	r2, [r3, #0]
 8002b08:	683b      	ldr	r3, [r7, #0]
 8002b0a:	9300      	str	r3, [sp, #0]
 8002b0c:	687b      	ldr	r3, [r7, #4]
 8002b0e:	2200      	movs	r2, #0
 8002b10:	f04f 1101 	mov.w	r1, #65537	; 0x10001
 8002b14:	68f8      	ldr	r0, [r7, #12]
 8002b16:	f000 f84f 	bl	8002bb8 <I2C_WaitOnFlagUntilTimeout>
 8002b1a:	4603      	mov	r3, r0
 8002b1c:	2b00      	cmp	r3, #0
 8002b1e:	d00d      	beq.n	8002b3c <I2C_MasterRequestWrite+0x88>
 8002b20:	68fb      	ldr	r3, [r7, #12]
 8002b22:	681b      	ldr	r3, [r3, #0]
 8002b24:	681b      	ldr	r3, [r3, #0]
 8002b26:	f403 7380 	and.w	r3, r3, #256	; 0x100
 8002b2a:	f5b3 7f80 	cmp.w	r3, #256	; 0x100
 8002b2e:	d103      	bne.n	8002b38 <I2C_MasterRequestWrite+0x84>
 8002b30:	68fb      	ldr	r3, [r7, #12]
 8002b32:	f44f 7200 	mov.w	r2, #512	; 0x200
 8002b36:	641a      	str	r2, [r3, #64]	; 0x40
 8002b38:	2303      	movs	r3, #3
 8002b3a:	e035      	b.n	8002ba8 <I2C_MasterRequestWrite+0xf4>
 8002b3c:	68fb      	ldr	r3, [r7, #12]
 8002b3e:	691b      	ldr	r3, [r3, #16]
 8002b40:	f5b3 4f80 	cmp.w	r3, #16384	; 0x4000
 8002b44:	d108      	bne.n	8002b58 <I2C_MasterRequestWrite+0xa4>
 8002b46:	897b      	ldrh	r3, [r7, #10]
 8002b48:	b2db      	uxtb	r3, r3
 8002b4a:	461a      	mov	r2, r3
 8002b4c:	68fb      	ldr	r3, [r7, #12]
 8002b4e:	681b      	ldr	r3, [r3, #0]
 8002b50:	f002 02fe 	and.w	r2, r2, #254	; 0xfe
 8002b54:	611a      	str	r2, [r3, #16]
 8002b56:	e01b      	b.n	8002b90 <I2C_MasterRequestWrite+0xdc>
 8002b58:	897b      	ldrh	r3, [r7, #10]
 8002b5a:	11db      	asrs	r3, r3, #7
 8002b5c:	b2db      	uxtb	r3, r3
 8002b5e:	f003 0306 	and.w	r3, r3, #6
 8002b62:	b2db      	uxtb	r3, r3
 8002b64:	f063 030f 	orn	r3, r3, #15
 8002b68:	b2da      	uxtb	r2, r3
 8002b6a:	68fb      	ldr	r3, [r7, #12]
 8002b6c:	681b      	ldr	r3, [r3, #0]
 8002b6e:	611a      	str	r2, [r3, #16]
 8002b70:	683b      	ldr	r3, [r7, #0]
 8002b72:	687a      	ldr	r2, [r7, #4]
 8002b74:	490e      	ldr	r1, [pc, #56]	; (8002bb0 <I2C_MasterRequestWrite+0xfc>)
 8002b76:	68f8      	ldr	r0, [r7, #12]
 8002b78:	f000 f875 	bl	8002c66 <I2C_WaitOnMasterAddressFlagUntilTimeout>
 8002b7c:	4603      	mov	r3, r0
 8002b7e:	2b00      	cmp	r3, #0
 8002b80:	d001      	beq.n	8002b86 <I2C_MasterRequestWrite+0xd2>
 8002b82:	2301      	movs	r3, #1
 8002b84:	e010      	b.n	8002ba8 <I2C_MasterRequestWrite+0xf4>
 8002b86:	897b      	ldrh	r3, [r7, #10]
 8002b88:	b2da      	uxtb	r2, r3
 8002b8a:	68fb      	ldr	r3, [r7, #12]
 8002b8c:	681b      	ldr	r3, [r3, #0]
 8002b8e:	611a      	str	r2, [r3, #16]
 8002b90:	683b      	ldr	r3, [r7, #0]
 8002b92:	687a      	ldr	r2, [r7, #4]
 8002b94:	4907      	ldr	r1, [pc, #28]	; (8002bb4 <I2C_MasterRequestWrite+0x100>)
 8002b96:	68f8      	ldr	r0, [r7, #12]
 8002b98:	f000 f865 	bl	8002c66 <I2C_WaitOnMasterAddressFlagUntilTimeout>
 8002b9c:	4603      	mov	r3, r0
 8002b9e:	2b00      	cmp	r3, #0
 8002ba0:	d001      	beq.n	8002ba6 <I2C_MasterRequestWrite+0xf2>
 8002ba2:	2301      	movs	r3, #1
 8002ba4:	e000      	b.n	8002ba8 <I2C_MasterRequestWrite+0xf4>
 8002ba6:	2300      	movs	r3, #0
 8002ba8:	4618      	mov	r0, r3
 8002baa:	3718      	adds	r7, #24
 8002bac:	46bd      	mov	sp, r7
 8002bae:	bd80      	pop	{r7, pc}
 8002bb0:	00010008 	.word	0x00010008
 8002bb4:	00010002 	.word	0x00010002

08002bb8 <I2C_WaitOnFlagUntilTimeout>:
 8002bb8:	b580      	push	{r7, lr}
 8002bba:	b084      	sub	sp, #16
 8002bbc:	af00      	add	r7, sp, #0
 8002bbe:	60f8      	str	r0, [r7, #12]
 8002bc0:	60b9      	str	r1, [r7, #8]
 8002bc2:	603b      	str	r3, [r7, #0]
 8002bc4:	4613      	mov	r3, r2
 8002bc6:	71fb      	strb	r3, [r7, #7]
 8002bc8:	e025      	b.n	8002c16 <I2C_WaitOnFlagUntilTimeout+0x5e>
 8002bca:	683b      	ldr	r3, [r7, #0]
 8002bcc:	f1b3 3fff 	cmp.w	r3, #4294967295
 8002bd0:	d021      	beq.n	8002c16 <I2C_WaitOnFlagUntilTimeout+0x5e>
 8002bd2:	f7ff fa3d 	bl	8002050 <HAL_GetTick>
 8002bd6:	4602      	mov	r2, r0
 8002bd8:	69bb      	ldr	r3, [r7, #24]
 8002bda:	1ad3      	subs	r3, r2, r3
 8002bdc:	683a      	ldr	r2, [r7, #0]
 8002bde:	429a      	cmp	r2, r3
 8002be0:	d302      	bcc.n	8002be8 <I2C_WaitOnFlagUntilTimeout+0x30>
 8002be2:	683b      	ldr	r3, [r7, #0]
 8002be4:	2b00      	cmp	r3, #0
 8002be6:	d116      	bne.n	8002c16 <I2C_WaitOnFlagUntilTimeout+0x5e>
 8002be8:	68fb      	ldr	r3, [r7, #12]
 8002bea:	2200      	movs	r2, #0
 8002bec:	631a      	str	r2, [r3, #48]	; 0x30
 8002bee:	68fb      	ldr	r3, [r7, #12]
 8002bf0:	2220      	movs	r2, #32
 8002bf2:	f883 203d 	strb.w	r2, [r3, #61]	; 0x3d
 8002bf6:	68fb      	ldr	r3, [r7, #12]
 8002bf8:	2200      	movs	r2, #0
 8002bfa:	f883 203e 	strb.w	r2, [r3, #62]	; 0x3e
 8002bfe:	68fb      	ldr	r3, [r7, #12]
 8002c00:	6c1b      	ldr	r3, [r3, #64]	; 0x40
 8002c02:	f043 0220 	orr.w	r2, r3, #32
 8002c06:	68fb      	ldr	r3, [r7, #12]
 8002c08:	641a      	str	r2, [r3, #64]	; 0x40
 8002c0a:	68fb      	ldr	r3, [r7, #12]
 8002c0c:	2200      	movs	r2, #0
 8002c0e:	f883 203c 	strb.w	r2, [r3, #60]	; 0x3c
 8002c12:	2301      	movs	r3, #1
 8002c14:	e023      	b.n	8002c5e <I2C_WaitOnFlagUntilTimeout+0xa6>
 8002c16:	68bb      	ldr	r3, [r7, #8]
 8002c18:	0c1b      	lsrs	r3, r3, #16
 8002c1a:	b2db      	uxtb	r3, r3
 8002c1c:	2b01      	cmp	r3, #1
 8002c1e:	d10d      	bne.n	8002c3c <I2C_WaitOnFlagUntilTimeout+0x84>
 8002c20:	68fb      	ldr	r3, [r7, #12]
 8002c22:	681b      	ldr	r3, [r3, #0]
 8002c24:	695b      	ldr	r3, [r3, #20]
 8002c26:	43da      	mvns	r2, r3
 8002c28:	68bb      	ldr	r3, [r7, #8]
 8002c2a:	4013      	ands	r3, r2
 8002c2c:	b29b      	uxth	r3, r3
 8002c2e:	2b00      	cmp	r3, #0
 8002c30:	bf0c      	ite	eq
 8002c32:	2301      	moveq	r3, #1
 8002c34:	2300      	movne	r3, #0
 8002c36:	b2db      	uxtb	r3, r3
 8002c38:	461a      	mov	r2, r3
 8002c3a:	e00c      	b.n	8002c56 <I2C_WaitOnFlagUntilTimeout+0x9e>
 8002c3c:	68fb      	ldr	r3, [r7, #12]
 8002c3e:	681b      	ldr	r3, [r3, #0]
 8002c40:	699b      	ldr	r3, [r3, #24]
 8002c42:	43da      	mvns	r2, r3
 8002c44:	68bb      	ldr	r3, [r7, #8]
 8002c46:	4013      	ands	r3, r2
 8002c48:	b29b      	uxth	r3, r3
 8002c4a:	2b00      	cmp	r3, #0
 8002c4c:	bf0c      	ite	eq
 8002c4e:	2301      	moveq	r3, #1
 8002c50:	2300      	movne	r3, #0
 8002c52:	b2db      	uxtb	r3, r3
 8002c54:	461a      	mov	r2, r3
 8002c56:	79fb      	ldrb	r3, [r7, #7]
 8002c58:	429a      	cmp	r2, r3
 8002c5a:	d0b6      	beq.n	8002bca <I2C_WaitOnFlagUntilTimeout+0x12>
 8002c5c:	2300      	movs	r3, #0
 8002c5e:	4618      	mov	r0, r3
 8002c60:	3710      	adds	r7, #16
 8002c62:	46bd      	mov	sp, r7
 8002c64:	bd80      	pop	{r7, pc}

08002c66 <I2C_WaitOnMasterAddressFlagUntilTimeout>:
 8002c66:	b580      	push	{r7, lr}
 8002c68:	b084      	sub	sp, #16
 8002c6a:	af00      	add	r7, sp, #0
 8002c6c:	60f8      	str	r0, [r7, #12]
 8002c6e:	60b9      	str	r1, [r7, #8]
 8002c70:	607a      	str	r2, [r7, #4]
 8002c72:	603b      	str	r3, [r7, #0]
 8002c74:	e051      	b.n	8002d1a <I2C_WaitOnMasterAddressFlagUntilTimeout+0xb4>
 8002c76:	68fb      	ldr	r3, [r7, #12]
 8002c78:	681b      	ldr	r3, [r3, #0]
 8002c7a:	695b      	ldr	r3, [r3, #20]
 8002c7c:	f403 6380 	and.w	r3, r3, #1024	; 0x400
 8002c80:	f5b3 6f80 	cmp.w	r3, #1024	; 0x400
 8002c84:	d123      	bne.n	8002cce <I2C_WaitOnMasterAddressFlagUntilTimeout+0x68>
 8002c86:	68fb      	ldr	r3, [r7, #12]
 8002c88:	681b      	ldr	r3, [r3, #0]
 8002c8a:	681a      	ldr	r2, [r3, #0]
 8002c8c:	68fb      	ldr	r3, [r7, #12]
 8002c8e:	681b      	ldr	r3, [r3, #0]
 8002c90:	f442 7200 	orr.w	r2, r2, #512	; 0x200
 8002c94:	601a      	str	r2, [r3, #0]
 8002c96:	68fb      	ldr	r3, [r7, #12]
 8002c98:	681b      	ldr	r3, [r3, #0]
 8002c9a:	f46f 6280 	mvn.w	r2, #1024	; 0x400
 8002c9e:	615a      	str	r2, [r3, #20]
 8002ca0:	68fb      	ldr	r3, [r7, #12]
 8002ca2:	2200      	movs	r2, #0
 8002ca4:	631a      	str	r2, [r3, #48]	; 0x30
 8002ca6:	68fb      	ldr	r3, [r7, #12]
 8002ca8:	2220      	movs	r2, #32
 8002caa:	f883 203d 	strb.w	r2, [r3, #61]	; 0x3d
 8002cae:	68fb      	ldr	r3, [r7, #12]
 8002cb0:	2200      	movs	r2, #0
 8002cb2:	f883 203e 	strb.w	r2, [r3, #62]	; 0x3e
 8002cb6:	68fb      	ldr	r3, [r7, #12]
 8002cb8:	6c1b      	ldr	r3, [r3, #64]	; 0x40
 8002cba:	f043 0204 	orr.w	r2, r3, #4
 8002cbe:	68fb      	ldr	r3, [r7, #12]
 8002cc0:	641a      	str	r2, [r3, #64]	; 0x40
 8002cc2:	68fb      	ldr	r3, [r7, #12]
 8002cc4:	2200      	movs	r2, #0
 8002cc6:	f883 203c 	strb.w	r2, [r3, #60]	; 0x3c
 8002cca:	2301      	movs	r3, #1
 8002ccc:	e046      	b.n	8002d5c <I2C_WaitOnMasterAddressFlagUntilTimeout+0xf6>
 8002cce:	687b      	ldr	r3, [r7, #4]
 8002cd0:	f1b3 3fff 	cmp.w	r3, #4294967295
 8002cd4:	d021      	beq.n	8002d1a <I2C_WaitOnMasterAddressFlagUntilTimeout+0xb4>
 8002cd6:	f7ff f9bb 	bl	8002050 <HAL_GetTick>
 8002cda:	4602      	mov	r2, r0
 8002cdc:	683b      	ldr	r3, [r7, #0]
 8002cde:	1ad3      	subs	r3, r2, r3
 8002ce0:	687a      	ldr	r2, [r7, #4]
 8002ce2:	429a      	cmp	r2, r3
 8002ce4:	d302      	bcc.n	8002cec <I2C_WaitOnMasterAddressFlagUntilTimeout+0x86>
 8002ce6:	687b      	ldr	r3, [r7, #4]
 8002ce8:	2b00      	cmp	r3, #0
 8002cea:	d116      	bne.n	8002d1a <I2C_WaitOnMasterAddressFlagUntilTimeout+0xb4>
 8002cec:	68fb      	ldr	r3, [r7, #12]
 8002cee:	2200      	movs	r2, #0
 8002cf0:	631a      	str	r2, [r3, #48]	; 0x30
 8002cf2:	68fb      	ldr	r3, [r7, #12]
 8002cf4:	2220      	movs	r2, #32
 8002cf6:	f883 203d 	strb.w	r2, [r3, #61]	; 0x3d
 8002cfa:	68fb      	ldr	r3, [r7, #12]
 8002cfc:	2200      	movs	r2, #0
 8002cfe:	f883 203e 	strb.w	r2, [r3, #62]	; 0x3e
 8002d02:	68fb      	ldr	r3, [r7, #12]
 8002d04:	6c1b      	ldr	r3, [r3, #64]	; 0x40
 8002d06:	f043 0220 	orr.w	r2, r3, #32
 8002d0a:	68fb      	ldr	r3, [r7, #12]
 8002d0c:	641a      	str	r2, [r3, #64]	; 0x40
 8002d0e:	68fb      	ldr	r3, [r7, #12]
 8002d10:	2200      	movs	r2, #0
 8002d12:	f883 203c 	strb.w	r2, [r3, #60]	; 0x3c
 8002d16:	2301      	movs	r3, #1
 8002d18:	e020      	b.n	8002d5c <I2C_WaitOnMasterAddressFlagUntilTimeout+0xf6>
 8002d1a:	68bb      	ldr	r3, [r7, #8]
 8002d1c:	0c1b      	lsrs	r3, r3, #16
 8002d1e:	b2db      	uxtb	r3, r3
 8002d20:	2b01      	cmp	r3, #1
 8002d22:	d10c      	bne.n	8002d3e <I2C_WaitOnMasterAddressFlagUntilTimeout+0xd8>
 8002d24:	68fb      	ldr	r3, [r7, #12]
 8002d26:	681b      	ldr	r3, [r3, #0]
 8002d28:	695b      	ldr	r3, [r3, #20]
 8002d2a:	43da      	mvns	r2, r3
 8002d2c:	68bb      	ldr	r3, [r7, #8]
 8002d2e:	4013      	ands	r3, r2
 8002d30:	b29b      	uxth	r3, r3
 8002d32:	2b00      	cmp	r3, #0
 8002d34:	bf14      	ite	ne
 8002d36:	2301      	movne	r3, #1
 8002d38:	2300      	moveq	r3, #0
 8002d3a:	b2db      	uxtb	r3, r3
 8002d3c:	e00b      	b.n	8002d56 <I2C_WaitOnMasterAddressFlagUntilTimeout+0xf0>
 8002d3e:	68fb      	ldr	r3, [r7, #12]
 8002d40:	681b      	ldr	r3, [r3, #0]
 8002d42:	699b      	ldr	r3, [r3, #24]
 8002d44:	43da      	mvns	r2, r3
 8002d46:	68bb      	ldr	r3, [r7, #8]
 8002d48:	4013      	ands	r3, r2
 8002d4a:	b29b      	uxth	r3, r3
 8002d4c:	2b00      	cmp	r3, #0
 8002d4e:	bf14      	ite	ne
 8002d50:	2301      	movne	r3, #1
 8002d52:	2300      	moveq	r3, #0
 8002d54:	b2db      	uxtb	r3, r3
 8002d56:	2b00      	cmp	r3, #0
 8002d58:	d18d      	bne.n	8002c76 <I2C_WaitOnMasterAddressFlagUntilTimeout+0x10>
 8002d5a:	2300      	movs	r3, #0
 8002d5c:	4618      	mov	r0, r3
 8002d5e:	3710      	adds	r7, #16
 8002d60:	46bd      	mov	sp, r7
 8002d62:	bd80      	pop	{r7, pc}

08002d64 <I2C_WaitOnTXEFlagUntilTimeout>:
 8002d64:	b580      	push	{r7, lr}
 8002d66:	b084      	sub	sp, #16
 8002d68:	af00      	add	r7, sp, #0
 8002d6a:	60f8      	str	r0, [r7, #12]
 8002d6c:	60b9      	str	r1, [r7, #8]
 8002d6e:	607a      	str	r2, [r7, #4]
 8002d70:	e02d      	b.n	8002dce <I2C_WaitOnTXEFlagUntilTimeout+0x6a>
 8002d72:	68f8      	ldr	r0, [r7, #12]
 8002d74:	f000 f878 	bl	8002e68 <I2C_IsAcknowledgeFailed>
 8002d78:	4603      	mov	r3, r0
 8002d7a:	2b00      	cmp	r3, #0
 8002d7c:	d001      	beq.n	8002d82 <I2C_WaitOnTXEFlagUntilTimeout+0x1e>
 8002d7e:	2301      	movs	r3, #1
 8002d80:	e02d      	b.n	8002dde <I2C_WaitOnTXEFlagUntilTimeout+0x7a>
 8002d82:	68bb      	ldr	r3, [r7, #8]
 8002d84:	f1b3 3fff 	cmp.w	r3, #4294967295
 8002d88:	d021      	beq.n	8002dce <I2C_WaitOnTXEFlagUntilTimeout+0x6a>
 8002d8a:	f7ff f961 	bl	8002050 <HAL_GetTick>
 8002d8e:	4602      	mov	r2, r0
 8002d90:	687b      	ldr	r3, [r7, #4]
 8002d92:	1ad3      	subs	r3, r2, r3
 8002d94:	68ba      	ldr	r2, [r7, #8]
 8002d96:	429a      	cmp	r2, r3
 8002d98:	d302      	bcc.n	8002da0 <I2C_WaitOnTXEFlagUntilTimeout+0x3c>
 8002d9a:	68bb      	ldr	r3, [r7, #8]
 8002d9c:	2b00      	cmp	r3, #0
 8002d9e:	d116      	bne.n	8002dce <I2C_WaitOnTXEFlagUntilTimeout+0x6a>
 8002da0:	68fb      	ldr	r3, [r7, #12]
 8002da2:	2200      	movs	r2, #0
 8002da4:	631a      	str	r2, [r3, #48]	; 0x30
 8002da6:	68fb      	ldr	r3, [r7, #12]
 8002da8:	2220      	movs	r2, #32
 8002daa:	f883 203d 	strb.w	r2, [r3, #61]	; 0x3d
 8002dae:	68fb      	ldr	r3, [r7, #12]
 8002db0:	2200      	movs	r2, #0
 8002db2:	f883 203e 	strb.w	r2, [r3, #62]	; 0x3e
 8002db6:	68fb      	ldr	r3, [r7, #12]
 8002db8:	6c1b      	ldr	r3, [r3, #64]	; 0x40
 8002dba:	f043 0220 	orr.w	r2, r3, #32
 8002dbe:	68fb      	ldr	r3, [r7, #12]
 8002dc0:	641a      	str	r2, [r3, #64]	; 0x40
 8002dc2:	68fb      	ldr	r3, [r7, #12]
 8002dc4:	2200      	movs	r2, #0
 8002dc6:	f883 203c 	strb.w	r2, [r3, #60]	; 0x3c
 8002dca:	2301      	movs	r3, #1
 8002dcc:	e007      	b.n	8002dde <I2C_WaitOnTXEFlagUntilTimeout+0x7a>
 8002dce:	68fb      	ldr	r3, [r7, #12]
 8002dd0:	681b      	ldr	r3, [r3, #0]
 8002dd2:	695b      	ldr	r3, [r3, #20]
 8002dd4:	f003 0380 	and.w	r3, r3, #128	; 0x80
 8002dd8:	2b80      	cmp	r3, #128	; 0x80
 8002dda:	d1ca      	bne.n	8002d72 <I2C_WaitOnTXEFlagUntilTimeout+0xe>
 8002ddc:	2300      	movs	r3, #0
 8002dde:	4618      	mov	r0, r3
 8002de0:	3710      	adds	r7, #16
 8002de2:	46bd      	mov	sp, r7
 8002de4:	bd80      	pop	{r7, pc}

08002de6 <I2C_WaitOnBTFFlagUntilTimeout>:
 8002de6:	b580      	push	{r7, lr}
 8002de8:	b084      	sub	sp, #16
 8002dea:	af00      	add	r7, sp, #0
 8002dec:	60f8      	str	r0, [r7, #12]
 8002dee:	60b9      	str	r1, [r7, #8]
 8002df0:	607a      	str	r2, [r7, #4]
 8002df2:	e02d      	b.n	8002e50 <I2C_WaitOnBTFFlagUntilTimeout+0x6a>
 8002df4:	68f8      	ldr	r0, [r7, #12]
 8002df6:	f000 f837 	bl	8002e68 <I2C_IsAcknowledgeFailed>
 8002dfa:	4603      	mov	r3, r0
 8002dfc:	2b00      	cmp	r3, #0
 8002dfe:	d001      	beq.n	8002e04 <I2C_WaitOnBTFFlagUntilTimeout+0x1e>
 8002e00:	2301      	movs	r3, #1
 8002e02:	e02d      	b.n	8002e60 <I2C_WaitOnBTFFlagUntilTimeout+0x7a>
 8002e04:	68bb      	ldr	r3, [r7, #8]
 8002e06:	f1b3 3fff 	cmp.w	r3, #4294967295
 8002e0a:	d021      	beq.n	8002e50 <I2C_WaitOnBTFFlagUntilTimeout+0x6a>
 8002e0c:	f7ff f920 	bl	8002050 <HAL_GetTick>
 8002e10:	4602      	mov	r2, r0
 8002e12:	687b      	ldr	r3, [r7, #4]
 8002e14:	1ad3      	subs	r3, r2, r3
 8002e16:	68ba      	ldr	r2, [r7, #8]
 8002e18:	429a      	cmp	r2, r3
 8002e1a:	d302      	bcc.n	8002e22 <I2C_WaitOnBTFFlagUntilTimeout+0x3c>
 8002e1c:	68bb      	ldr	r3, [r7, #8]
 8002e1e:	2b00      	cmp	r3, #0
 8002e20:	d116      	bne.n	8002e50 <I2C_WaitOnBTFFlagUntilTimeout+0x6a>
 8002e22:	68fb      	ldr	r3, [r7, #12]
 8002e24:	2200      	movs	r2, #0
 8002e26:	631a      	str	r2, [r3, #48]	; 0x30
 8002e28:	68fb      	ldr	r3, [r7, #12]
 8002e2a:	2220      	movs	r2, #32
 8002e2c:	f883 203d 	strb.w	r2, [r3, #61]	; 0x3d
 8002e30:	68fb      	ldr	r3, [r7, #12]
 8002e32:	2200      	movs	r2, #0
 8002e34:	f883 203e 	strb.w	r2, [r3, #62]	; 0x3e
 8002e38:	68fb      	ldr	r3, [r7, #12]
 8002e3a:	6c1b      	ldr	r3, [r3, #64]	; 0x40
 8002e3c:	f043 0220 	orr.w	r2, r3, #32
 8002e40:	68fb      	ldr	r3, [r7, #12]
 8002e42:	641a      	str	r2, [r3, #64]	; 0x40
 8002e44:	68fb      	ldr	r3, [r7, #12]
 8002e46:	2200      	movs	r2, #0
 8002e48:	f883 203c 	strb.w	r2, [r3, #60]	; 0x3c
 8002e4c:	2301      	movs	r3, #1
 8002e4e:	e007      	b.n	8002e60 <I2C_WaitOnBTFFlagUntilTimeout+0x7a>
 8002e50:	68fb      	ldr	r3, [r7, #12]
 8002e52:	681b      	ldr	r3, [r3, #0]
 8002e54:	695b      	ldr	r3, [r3, #20]
 8002e56:	f003 0304 	and.w	r3, r3, #4
 8002e5a:	2b04      	cmp	r3, #4
 8002e5c:	d1ca      	bne.n	8002df4 <I2C_WaitOnBTFFlagUntilTimeout+0xe>
 8002e5e:	2300      	movs	r3, #0
 8002e60:	4618      	mov	r0, r3
 8002e62:	3710      	adds	r7, #16
 8002e64:	46bd      	mov	sp, r7
 8002e66:	bd80      	pop	{r7, pc}

08002e68 <I2C_IsAcknowledgeFailed>:
 8002e68:	b480      	push	{r7}
 8002e6a:	b083      	sub	sp, #12
 8002e6c:	af00      	add	r7, sp, #0
 8002e6e:	6078      	str	r0, [r7, #4]
 8002e70:	687b      	ldr	r3, [r7, #4]
 8002e72:	681b      	ldr	r3, [r3, #0]
 8002e74:	695b      	ldr	r3, [r3, #20]
 8002e76:	f403 6380 	and.w	r3, r3, #1024	; 0x400
 8002e7a:	f5b3 6f80 	cmp.w	r3, #1024	; 0x400
 8002e7e:	d11b      	bne.n	8002eb8 <I2C_IsAcknowledgeFailed+0x50>
 8002e80:	687b      	ldr	r3, [r7, #4]
 8002e82:	681b      	ldr	r3, [r3, #0]
 8002e84:	f46f 6280 	mvn.w	r2, #1024	; 0x400
 8002e88:	615a      	str	r2, [r3, #20]
 8002e8a:	687b      	ldr	r3, [r7, #4]
 8002e8c:	2200      	movs	r2, #0
 8002e8e:	631a      	str	r2, [r3, #48]	; 0x30
 8002e90:	687b      	ldr	r3, [r7, #4]
 8002e92:	2220      	movs	r2, #32
 8002e94:	f883 203d 	strb.w	r2, [r3, #61]	; 0x3d
 8002e98:	687b      	ldr	r3, [r7, #4]
 8002e9a:	2200      	movs	r2, #0
 8002e9c:	f883 203e 	strb.w	r2, [r3, #62]	; 0x3e
 8002ea0:	687b      	ldr	r3, [r7, #4]
 8002ea2:	6c1b      	ldr	r3, [r3, #64]	; 0x40
 8002ea4:	f043 0204 	orr.w	r2, r3, #4
 8002ea8:	687b      	ldr	r3, [r7, #4]
 8002eaa:	641a      	str	r2, [r3, #64]	; 0x40
 8002eac:	687b      	ldr	r3, [r7, #4]
 8002eae:	2200      	movs	r2, #0
 8002eb0:	f883 203c 	strb.w	r2, [r3, #60]	; 0x3c
 8002eb4:	2301      	movs	r3, #1
 8002eb6:	e000      	b.n	8002eba <I2C_IsAcknowledgeFailed+0x52>
 8002eb8:	2300      	movs	r3, #0
 8002eba:	4618      	mov	r0, r3
 8002ebc:	370c      	adds	r7, #12
 8002ebe:	46bd      	mov	sp, r7
 8002ec0:	bc80      	pop	{r7}
 8002ec2:	4770      	bx	lr

08002ec4 <HAL_PWR_EnableBkUpAccess>:
 8002ec4:	b480      	push	{r7}
 8002ec6:	af00      	add	r7, sp, #0
 8002ec8:	4b03      	ldr	r3, [pc, #12]	; (8002ed8 <HAL_PWR_EnableBkUpAccess+0x14>)
 8002eca:	2201      	movs	r2, #1
 8002ecc:	601a      	str	r2, [r3, #0]
 8002ece:	bf00      	nop
 8002ed0:	46bd      	mov	sp, r7
 8002ed2:	bc80      	pop	{r7}
 8002ed4:	4770      	bx	lr
 8002ed6:	bf00      	nop
 8002ed8:	420e0020 	.word	0x420e0020

08002edc <HAL_RCC_OscConfig>:
 8002edc:	b580      	push	{r7, lr}
 8002ede:	b086      	sub	sp, #24
 8002ee0:	af00      	add	r7, sp, #0
 8002ee2:	6078      	str	r0, [r7, #4]
 8002ee4:	687b      	ldr	r3, [r7, #4]
 8002ee6:	2b00      	cmp	r3, #0
 8002ee8:	d101      	bne.n	8002eee <HAL_RCC_OscConfig+0x12>
 8002eea:	2301      	movs	r3, #1
 8002eec:	e272      	b.n	80033d4 <HAL_RCC_OscConfig+0x4f8>
 8002eee:	687b      	ldr	r3, [r7, #4]
 8002ef0:	681b      	ldr	r3, [r3, #0]
 8002ef2:	f003 0301 	and.w	r3, r3, #1
 8002ef6:	2b00      	cmp	r3, #0
 8002ef8:	f000 8087 	beq.w	800300a <HAL_RCC_OscConfig+0x12e>
 8002efc:	4b92      	ldr	r3, [pc, #584]	; (8003148 <HAL_RCC_OscConfig+0x26c>)
 8002efe:	685b      	ldr	r3, [r3, #4]
 8002f00:	f003 030c 	and.w	r3, r3, #12
 8002f04:	2b04      	cmp	r3, #4
 8002f06:	d00c      	beq.n	8002f22 <HAL_RCC_OscConfig+0x46>
 8002f08:	4b8f      	ldr	r3, [pc, #572]	; (8003148 <HAL_RCC_OscConfig+0x26c>)
 8002f0a:	685b      	ldr	r3, [r3, #4]
 8002f0c:	f003 030c 	and.w	r3, r3, #12
 8002f10:	2b08      	cmp	r3, #8
 8002f12:	d112      	bne.n	8002f3a <HAL_RCC_OscConfig+0x5e>
 8002f14:	4b8c      	ldr	r3, [pc, #560]	; (8003148 <HAL_RCC_OscConfig+0x26c>)
 8002f16:	685b      	ldr	r3, [r3, #4]
 8002f18:	f403 3380 	and.w	r3, r3, #65536	; 0x10000
 8002f1c:	f5b3 3f80 	cmp.w	r3, #65536	; 0x10000
 8002f20:	d10b      	bne.n	8002f3a <HAL_RCC_OscConfig+0x5e>
 8002f22:	4b89      	ldr	r3, [pc, #548]	; (8003148 <HAL_RCC_OscConfig+0x26c>)
 8002f24:	681b      	ldr	r3, [r3, #0]
 8002f26:	f403 3300 	and.w	r3, r3, #131072	; 0x20000
 8002f2a:	2b00      	cmp	r3, #0
 8002f2c:	d06c      	beq.n	8003008 <HAL_RCC_OscConfig+0x12c>
 8002f2e:	687b      	ldr	r3, [r7, #4]
 8002f30:	685b      	ldr	r3, [r3, #4]
 8002f32:	2b00      	cmp	r3, #0
 8002f34:	d168      	bne.n	8003008 <HAL_RCC_OscConfig+0x12c>
 8002f36:	2301      	movs	r3, #1
 8002f38:	e24c      	b.n	80033d4 <HAL_RCC_OscConfig+0x4f8>
 8002f3a:	687b      	ldr	r3, [r7, #4]
 8002f3c:	685b      	ldr	r3, [r3, #4]
 8002f3e:	f5b3 3f80 	cmp.w	r3, #65536	; 0x10000
 8002f42:	d106      	bne.n	8002f52 <HAL_RCC_OscConfig+0x76>
 8002f44:	4b80      	ldr	r3, [pc, #512]	; (8003148 <HAL_RCC_OscConfig+0x26c>)
 8002f46:	681b      	ldr	r3, [r3, #0]
 8002f48:	4a7f      	ldr	r2, [pc, #508]	; (8003148 <HAL_RCC_OscConfig+0x26c>)
 8002f4a:	f443 3380 	orr.w	r3, r3, #65536	; 0x10000
 8002f4e:	6013      	str	r3, [r2, #0]
 8002f50:	e02e      	b.n	8002fb0 <HAL_RCC_OscConfig+0xd4>
 8002f52:	687b      	ldr	r3, [r7, #4]
 8002f54:	685b      	ldr	r3, [r3, #4]
 8002f56:	2b00      	cmp	r3, #0
 8002f58:	d10c      	bne.n	8002f74 <HAL_RCC_OscConfig+0x98>
 8002f5a:	4b7b      	ldr	r3, [pc, #492]	; (8003148 <HAL_RCC_OscConfig+0x26c>)
 8002f5c:	681b      	ldr	r3, [r3, #0]
 8002f5e:	4a7a      	ldr	r2, [pc, #488]	; (8003148 <HAL_RCC_OscConfig+0x26c>)
 8002f60:	f423 3380 	bic.w	r3, r3, #65536	; 0x10000
 8002f64:	6013      	str	r3, [r2, #0]
 8002f66:	4b78      	ldr	r3, [pc, #480]	; (8003148 <HAL_RCC_OscConfig+0x26c>)
 8002f68:	681b      	ldr	r3, [r3, #0]
 8002f6a:	4a77      	ldr	r2, [pc, #476]	; (8003148 <HAL_RCC_OscConfig+0x26c>)
 8002f6c:	f423 2380 	bic.w	r3, r3, #262144	; 0x40000
 8002f70:	6013      	str	r3, [r2, #0]
 8002f72:	e01d      	b.n	8002fb0 <HAL_RCC_OscConfig+0xd4>
 8002f74:	687b      	ldr	r3, [r7, #4]
 8002f76:	685b      	ldr	r3, [r3, #4]
 8002f78:	f5b3 2fa0 	cmp.w	r3, #327680	; 0x50000
 8002f7c:	d10c      	bne.n	8002f98 <HAL_RCC_OscConfig+0xbc>
 8002f7e:	4b72      	ldr	r3, [pc, #456]	; (8003148 <HAL_RCC_OscConfig+0x26c>)
 8002f80:	681b      	ldr	r3, [r3, #0]
 8002f82:	4a71      	ldr	r2, [pc, #452]	; (8003148 <HAL_RCC_OscConfig+0x26c>)
 8002f84:	f443 2380 	orr.w	r3, r3, #262144	; 0x40000
 8002f88:	6013      	str	r3, [r2, #0]
 8002f8a:	4b6f      	ldr	r3, [pc, #444]	; (8003148 <HAL_RCC_OscConfig+0x26c>)
 8002f8c:	681b      	ldr	r3, [r3, #0]
 8002f8e:	4a6e      	ldr	r2, [pc, #440]	; (8003148 <HAL_RCC_OscConfig+0x26c>)
 8002f90:	f443 3380 	orr.w	r3, r3, #65536	; 0x10000
 8002f94:	6013      	str	r3, [r2, #0]
 8002f96:	e00b      	b.n	8002fb0 <HAL_RCC_OscConfig+0xd4>
 8002f98:	4b6b      	ldr	r3, [pc, #428]	; (8003148 <HAL_RCC_OscConfig+0x26c>)
 8002f9a:	681b      	ldr	r3, [r3, #0]
 8002f9c:	4a6a      	ldr	r2, [pc, #424]	; (8003148 <HAL_RCC_OscConfig+0x26c>)
 8002f9e:	f423 3380 	bic.w	r3, r3, #65536	; 0x10000
 8002fa2:	6013      	str	r3, [r2, #0]
 8002fa4:	4b68      	ldr	r3, [pc, #416]	; (8003148 <HAL_RCC_OscConfig+0x26c>)
 8002fa6:	681b      	ldr	r3, [r3, #0]
 8002fa8:	4a67      	ldr	r2, [pc, #412]	; (8003148 <HAL_RCC_OscConfig+0x26c>)
 8002faa:	f423 2380 	bic.w	r3, r3, #262144	; 0x40000
 8002fae:	6013      	str	r3, [r2, #0]
 8002fb0:	687b      	ldr	r3, [r7, #4]
 8002fb2:	685b      	ldr	r3, [r3, #4]
 8002fb4:	2b00      	cmp	r3, #0
 8002fb6:	d013      	beq.n	8002fe0 <HAL_RCC_OscConfig+0x104>
 8002fb8:	f7ff f84a 	bl	8002050 <HAL_GetTick>
 8002fbc:	6138      	str	r0, [r7, #16]
 8002fbe:	e008      	b.n	8002fd2 <HAL_RCC_OscConfig+0xf6>
 8002fc0:	f7ff f846 	bl	8002050 <HAL_GetTick>
 8002fc4:	4602      	mov	r2, r0
 8002fc6:	693b      	ldr	r3, [r7, #16]
 8002fc8:	1ad3      	subs	r3, r2, r3
 8002fca:	2b64      	cmp	r3, #100	; 0x64
 8002fcc:	d901      	bls.n	8002fd2 <HAL_RCC_OscConfig+0xf6>
 8002fce:	2303      	movs	r3, #3
 8002fd0:	e200      	b.n	80033d4 <HAL_RCC_OscConfig+0x4f8>
 8002fd2:	4b5d      	ldr	r3, [pc, #372]	; (8003148 <HAL_RCC_OscConfig+0x26c>)
 8002fd4:	681b      	ldr	r3, [r3, #0]
 8002fd6:	f403 3300 	and.w	r3, r3, #131072	; 0x20000
 8002fda:	2b00      	cmp	r3, #0
 8002fdc:	d0f0      	beq.n	8002fc0 <HAL_RCC_OscConfig+0xe4>
 8002fde:	e014      	b.n	800300a <HAL_RCC_OscConfig+0x12e>
 8002fe0:	f7ff f836 	bl	8002050 <HAL_GetTick>
 8002fe4:	6138      	str	r0, [r7, #16]
 8002fe6:	e008      	b.n	8002ffa <HAL_RCC_OscConfig+0x11e>
 8002fe8:	f7ff f832 	bl	8002050 <HAL_GetTick>
 8002fec:	4602      	mov	r2, r0
 8002fee:	693b      	ldr	r3, [r7, #16]
 8002ff0:	1ad3      	subs	r3, r2, r3
 8002ff2:	2b64      	cmp	r3, #100	; 0x64
 8002ff4:	d901      	bls.n	8002ffa <HAL_RCC_OscConfig+0x11e>
 8002ff6:	2303      	movs	r3, #3
 8002ff8:	e1ec      	b.n	80033d4 <HAL_RCC_OscConfig+0x4f8>
 8002ffa:	4b53      	ldr	r3, [pc, #332]	; (8003148 <HAL_RCC_OscConfig+0x26c>)
 8002ffc:	681b      	ldr	r3, [r3, #0]
 8002ffe:	f403 3300 	and.w	r3, r3, #131072	; 0x20000
 8003002:	2b00      	cmp	r3, #0
 8003004:	d1f0      	bne.n	8002fe8 <HAL_RCC_OscConfig+0x10c>
 8003006:	e000      	b.n	800300a <HAL_RCC_OscConfig+0x12e>
 8003008:	bf00      	nop
 800300a:	687b      	ldr	r3, [r7, #4]
 800300c:	681b      	ldr	r3, [r3, #0]
 800300e:	f003 0302 	and.w	r3, r3, #2
 8003012:	2b00      	cmp	r3, #0
 8003014:	d063      	beq.n	80030de <HAL_RCC_OscConfig+0x202>
 8003016:	4b4c      	ldr	r3, [pc, #304]	; (8003148 <HAL_RCC_OscConfig+0x26c>)
 8003018:	685b      	ldr	r3, [r3, #4]
 800301a:	f003 030c 	and.w	r3, r3, #12
 800301e:	2b00      	cmp	r3, #0
 8003020:	d00b      	beq.n	800303a <HAL_RCC_OscConfig+0x15e>
 8003022:	4b49      	ldr	r3, [pc, #292]	; (8003148 <HAL_RCC_OscConfig+0x26c>)
 8003024:	685b      	ldr	r3, [r3, #4]
 8003026:	f003 030c 	and.w	r3, r3, #12
 800302a:	2b08      	cmp	r3, #8
 800302c:	d11c      	bne.n	8003068 <HAL_RCC_OscConfig+0x18c>
 800302e:	4b46      	ldr	r3, [pc, #280]	; (8003148 <HAL_RCC_OscConfig+0x26c>)
 8003030:	685b      	ldr	r3, [r3, #4]
 8003032:	f403 3380 	and.w	r3, r3, #65536	; 0x10000
 8003036:	2b00      	cmp	r3, #0
 8003038:	d116      	bne.n	8003068 <HAL_RCC_OscConfig+0x18c>
 800303a:	4b43      	ldr	r3, [pc, #268]	; (8003148 <HAL_RCC_OscConfig+0x26c>)
 800303c:	681b      	ldr	r3, [r3, #0]
 800303e:	f003 0302 	and.w	r3, r3, #2
 8003042:	2b00      	cmp	r3, #0
 8003044:	d005      	beq.n	8003052 <HAL_RCC_OscConfig+0x176>
 8003046:	687b      	ldr	r3, [r7, #4]
 8003048:	691b      	ldr	r3, [r3, #16]
 800304a:	2b01      	cmp	r3, #1
 800304c:	d001      	beq.n	8003052 <HAL_RCC_OscConfig+0x176>
 800304e:	2301      	movs	r3, #1
 8003050:	e1c0      	b.n	80033d4 <HAL_RCC_OscConfig+0x4f8>
 8003052:	4b3d      	ldr	r3, [pc, #244]	; (8003148 <HAL_RCC_OscConfig+0x26c>)
 8003054:	681b      	ldr	r3, [r3, #0]
 8003056:	f023 02f8 	bic.w	r2, r3, #248	; 0xf8
 800305a:	687b      	ldr	r3, [r7, #4]
 800305c:	695b      	ldr	r3, [r3, #20]
 800305e:	00db      	lsls	r3, r3, #3
 8003060:	4939      	ldr	r1, [pc, #228]	; (8003148 <HAL_RCC_OscConfig+0x26c>)
 8003062:	4313      	orrs	r3, r2
 8003064:	600b      	str	r3, [r1, #0]
 8003066:	e03a      	b.n	80030de <HAL_RCC_OscConfig+0x202>
 8003068:	687b      	ldr	r3, [r7, #4]
 800306a:	691b      	ldr	r3, [r3, #16]
 800306c:	2b00      	cmp	r3, #0
 800306e:	d020      	beq.n	80030b2 <HAL_RCC_OscConfig+0x1d6>
 8003070:	4b36      	ldr	r3, [pc, #216]	; (800314c <HAL_RCC_OscConfig+0x270>)
 8003072:	2201      	movs	r2, #1
 8003074:	601a      	str	r2, [r3, #0]
 8003076:	f7fe ffeb 	bl	8002050 <HAL_GetTick>
 800307a:	6138      	str	r0, [r7, #16]
 800307c:	e008      	b.n	8003090 <HAL_RCC_OscConfig+0x1b4>
 800307e:	f7fe ffe7 	bl	8002050 <HAL_GetTick>
 8003082:	4602      	mov	r2, r0
 8003084:	693b      	ldr	r3, [r7, #16]
 8003086:	1ad3      	subs	r3, r2, r3
 8003088:	2b02      	cmp	r3, #2
 800308a:	d901      	bls.n	8003090 <HAL_RCC_OscConfig+0x1b4>
 800308c:	2303      	movs	r3, #3
 800308e:	e1a1      	b.n	80033d4 <HAL_RCC_OscConfig+0x4f8>
 8003090:	4b2d      	ldr	r3, [pc, #180]	; (8003148 <HAL_RCC_OscConfig+0x26c>)
 8003092:	681b      	ldr	r3, [r3, #0]
 8003094:	f003 0302 	and.w	r3, r3, #2
 8003098:	2b00      	cmp	r3, #0
 800309a:	d0f0      	beq.n	800307e <HAL_RCC_OscConfig+0x1a2>
 800309c:	4b2a      	ldr	r3, [pc, #168]	; (8003148 <HAL_RCC_OscConfig+0x26c>)
 800309e:	681b      	ldr	r3, [r3, #0]
 80030a0:	f023 02f8 	bic.w	r2, r3, #248	; 0xf8
 80030a4:	687b      	ldr	r3, [r7, #4]
 80030a6:	695b      	ldr	r3, [r3, #20]
 80030a8:	00db      	lsls	r3, r3, #3
 80030aa:	4927      	ldr	r1, [pc, #156]	; (8003148 <HAL_RCC_OscConfig+0x26c>)
 80030ac:	4313      	orrs	r3, r2
 80030ae:	600b      	str	r3, [r1, #0]
 80030b0:	e015      	b.n	80030de <HAL_RCC_OscConfig+0x202>
 80030b2:	4b26      	ldr	r3, [pc, #152]	; (800314c <HAL_RCC_OscConfig+0x270>)
 80030b4:	2200      	movs	r2, #0
 80030b6:	601a      	str	r2, [r3, #0]
 80030b8:	f7fe ffca 	bl	8002050 <HAL_GetTick>
 80030bc:	6138      	str	r0, [r7, #16]
 80030be:	e008      	b.n	80030d2 <HAL_RCC_OscConfig+0x1f6>
 80030c0:	f7fe ffc6 	bl	8002050 <HAL_GetTick>
 80030c4:	4602      	mov	r2, r0
 80030c6:	693b      	ldr	r3, [r7, #16]
 80030c8:	1ad3      	subs	r3, r2, r3
 80030ca:	2b02      	cmp	r3, #2
 80030cc:	d901      	bls.n	80030d2 <HAL_RCC_OscConfig+0x1f6>
 80030ce:	2303      	movs	r3, #3
 80030d0:	e180      	b.n	80033d4 <HAL_RCC_OscConfig+0x4f8>
 80030d2:	4b1d      	ldr	r3, [pc, #116]	; (8003148 <HAL_RCC_OscConfig+0x26c>)
 80030d4:	681b      	ldr	r3, [r3, #0]
 80030d6:	f003 0302 	and.w	r3, r3, #2
 80030da:	2b00      	cmp	r3, #0
 80030dc:	d1f0      	bne.n	80030c0 <HAL_RCC_OscConfig+0x1e4>
 80030de:	687b      	ldr	r3, [r7, #4]
 80030e0:	681b      	ldr	r3, [r3, #0]
 80030e2:	f003 0308 	and.w	r3, r3, #8
 80030e6:	2b00      	cmp	r3, #0
 80030e8:	d03a      	beq.n	8003160 <HAL_RCC_OscConfig+0x284>
 80030ea:	687b      	ldr	r3, [r7, #4]
 80030ec:	699b      	ldr	r3, [r3, #24]
 80030ee:	2b00      	cmp	r3, #0
 80030f0:	d019      	beq.n	8003126 <HAL_RCC_OscConfig+0x24a>
 80030f2:	4b17      	ldr	r3, [pc, #92]	; (8003150 <HAL_RCC_OscConfig+0x274>)
 80030f4:	2201      	movs	r2, #1
 80030f6:	601a      	str	r2, [r3, #0]
 80030f8:	f7fe ffaa 	bl	8002050 <HAL_GetTick>
 80030fc:	6138      	str	r0, [r7, #16]
 80030fe:	e008      	b.n	8003112 <HAL_RCC_OscConfig+0x236>
 8003100:	f7fe ffa6 	bl	8002050 <HAL_GetTick>
 8003104:	4602      	mov	r2, r0
 8003106:	693b      	ldr	r3, [r7, #16]
 8003108:	1ad3      	subs	r3, r2, r3
 800310a:	2b02      	cmp	r3, #2
 800310c:	d901      	bls.n	8003112 <HAL_RCC_OscConfig+0x236>
 800310e:	2303      	movs	r3, #3
 8003110:	e160      	b.n	80033d4 <HAL_RCC_OscConfig+0x4f8>
 8003112:	4b0d      	ldr	r3, [pc, #52]	; (8003148 <HAL_RCC_OscConfig+0x26c>)
 8003114:	6a5b      	ldr	r3, [r3, #36]	; 0x24
 8003116:	f003 0302 	and.w	r3, r3, #2
 800311a:	2b00      	cmp	r3, #0
 800311c:	d0f0      	beq.n	8003100 <HAL_RCC_OscConfig+0x224>
 800311e:	2001      	movs	r0, #1
 8003120:	f000 fad8 	bl	80036d4 <RCC_Delay>
 8003124:	e01c      	b.n	8003160 <HAL_RCC_OscConfig+0x284>
 8003126:	4b0a      	ldr	r3, [pc, #40]	; (8003150 <HAL_RCC_OscConfig+0x274>)
 8003128:	2200      	movs	r2, #0
 800312a:	601a      	str	r2, [r3, #0]
 800312c:	f7fe ff90 	bl	8002050 <HAL_GetTick>
 8003130:	6138      	str	r0, [r7, #16]
 8003132:	e00f      	b.n	8003154 <HAL_RCC_OscConfig+0x278>
 8003134:	f7fe ff8c 	bl	8002050 <HAL_GetTick>
 8003138:	4602      	mov	r2, r0
 800313a:	693b      	ldr	r3, [r7, #16]
 800313c:	1ad3      	subs	r3, r2, r3
 800313e:	2b02      	cmp	r3, #2
 8003140:	d908      	bls.n	8003154 <HAL_RCC_OscConfig+0x278>
 8003142:	2303      	movs	r3, #3
 8003144:	e146      	b.n	80033d4 <HAL_RCC_OscConfig+0x4f8>
 8003146:	bf00      	nop
 8003148:	40021000 	.word	0x40021000
 800314c:	42420000 	.word	0x42420000
 8003150:	42420480 	.word	0x42420480
 8003154:	4b92      	ldr	r3, [pc, #584]	; (80033a0 <HAL_RCC_OscConfig+0x4c4>)
 8003156:	6a5b      	ldr	r3, [r3, #36]	; 0x24
 8003158:	f003 0302 	and.w	r3, r3, #2
 800315c:	2b00      	cmp	r3, #0
 800315e:	d1e9      	bne.n	8003134 <HAL_RCC_OscConfig+0x258>
 8003160:	687b      	ldr	r3, [r7, #4]
 8003162:	681b      	ldr	r3, [r3, #0]
 8003164:	f003 0304 	and.w	r3, r3, #4
 8003168:	2b00      	cmp	r3, #0
 800316a:	f000 80a6 	beq.w	80032ba <HAL_RCC_OscConfig+0x3de>
 800316e:	2300      	movs	r3, #0
 8003170:	75fb      	strb	r3, [r7, #23]
 8003172:	4b8b      	ldr	r3, [pc, #556]	; (80033a0 <HAL_RCC_OscConfig+0x4c4>)
 8003174:	69db      	ldr	r3, [r3, #28]
 8003176:	f003 5380 	and.w	r3, r3, #268435456	; 0x10000000
 800317a:	2b00      	cmp	r3, #0
 800317c:	d10d      	bne.n	800319a <HAL_RCC_OscConfig+0x2be>
 800317e:	4b88      	ldr	r3, [pc, #544]	; (80033a0 <HAL_RCC_OscConfig+0x4c4>)
 8003180:	69db      	ldr	r3, [r3, #28]
 8003182:	4a87      	ldr	r2, [pc, #540]	; (80033a0 <HAL_RCC_OscConfig+0x4c4>)
 8003184:	f043 5380 	orr.w	r3, r3, #268435456	; 0x10000000
 8003188:	61d3      	str	r3, [r2, #28]
 800318a:	4b85      	ldr	r3, [pc, #532]	; (80033a0 <HAL_RCC_OscConfig+0x4c4>)
 800318c:	69db      	ldr	r3, [r3, #28]
 800318e:	f003 5380 	and.w	r3, r3, #268435456	; 0x10000000
 8003192:	60bb      	str	r3, [r7, #8]
 8003194:	68bb      	ldr	r3, [r7, #8]
 8003196:	2301      	movs	r3, #1
 8003198:	75fb      	strb	r3, [r7, #23]
 800319a:	4b82      	ldr	r3, [pc, #520]	; (80033a4 <HAL_RCC_OscConfig+0x4c8>)
 800319c:	681b      	ldr	r3, [r3, #0]
 800319e:	f403 7380 	and.w	r3, r3, #256	; 0x100
 80031a2:	2b00      	cmp	r3, #0
 80031a4:	d118      	bne.n	80031d8 <HAL_RCC_OscConfig+0x2fc>
 80031a6:	4b7f      	ldr	r3, [pc, #508]	; (80033a4 <HAL_RCC_OscConfig+0x4c8>)
 80031a8:	681b      	ldr	r3, [r3, #0]
 80031aa:	4a7e      	ldr	r2, [pc, #504]	; (80033a4 <HAL_RCC_OscConfig+0x4c8>)
 80031ac:	f443 7380 	orr.w	r3, r3, #256	; 0x100
 80031b0:	6013      	str	r3, [r2, #0]
 80031b2:	f7fe ff4d 	bl	8002050 <HAL_GetTick>
 80031b6:	6138      	str	r0, [r7, #16]
 80031b8:	e008      	b.n	80031cc <HAL_RCC_OscConfig+0x2f0>
 80031ba:	f7fe ff49 	bl	8002050 <HAL_GetTick>
 80031be:	4602      	mov	r2, r0
 80031c0:	693b      	ldr	r3, [r7, #16]
 80031c2:	1ad3      	subs	r3, r2, r3
 80031c4:	2b64      	cmp	r3, #100	; 0x64
 80031c6:	d901      	bls.n	80031cc <HAL_RCC_OscConfig+0x2f0>
 80031c8:	2303      	movs	r3, #3
 80031ca:	e103      	b.n	80033d4 <HAL_RCC_OscConfig+0x4f8>
 80031cc:	4b75      	ldr	r3, [pc, #468]	; (80033a4 <HAL_RCC_OscConfig+0x4c8>)
 80031ce:	681b      	ldr	r3, [r3, #0]
 80031d0:	f403 7380 	and.w	r3, r3, #256	; 0x100
 80031d4:	2b00      	cmp	r3, #0
 80031d6:	d0f0      	beq.n	80031ba <HAL_RCC_OscConfig+0x2de>
 80031d8:	687b      	ldr	r3, [r7, #4]
 80031da:	68db      	ldr	r3, [r3, #12]
 80031dc:	2b01      	cmp	r3, #1
 80031de:	d106      	bne.n	80031ee <HAL_RCC_OscConfig+0x312>
 80031e0:	4b6f      	ldr	r3, [pc, #444]	; (80033a0 <HAL_RCC_OscConfig+0x4c4>)
 80031e2:	6a1b      	ldr	r3, [r3, #32]
 80031e4:	4a6e      	ldr	r2, [pc, #440]	; (80033a0 <HAL_RCC_OscConfig+0x4c4>)
 80031e6:	f043 0301 	orr.w	r3, r3, #1
 80031ea:	6213      	str	r3, [r2, #32]
 80031ec:	e02d      	b.n	800324a <HAL_RCC_OscConfig+0x36e>
 80031ee:	687b      	ldr	r3, [r7, #4]
 80031f0:	68db      	ldr	r3, [r3, #12]
 80031f2:	2b00      	cmp	r3, #0
 80031f4:	d10c      	bne.n	8003210 <HAL_RCC_OscConfig+0x334>
 80031f6:	4b6a      	ldr	r3, [pc, #424]	; (80033a0 <HAL_RCC_OscConfig+0x4c4>)
 80031f8:	6a1b      	ldr	r3, [r3, #32]
 80031fa:	4a69      	ldr	r2, [pc, #420]	; (80033a0 <HAL_RCC_OscConfig+0x4c4>)
 80031fc:	f023 0301 	bic.w	r3, r3, #1
 8003200:	6213      	str	r3, [r2, #32]
 8003202:	4b67      	ldr	r3, [pc, #412]	; (80033a0 <HAL_RCC_OscConfig+0x4c4>)
 8003204:	6a1b      	ldr	r3, [r3, #32]
 8003206:	4a66      	ldr	r2, [pc, #408]	; (80033a0 <HAL_RCC_OscConfig+0x4c4>)
 8003208:	f023 0304 	bic.w	r3, r3, #4
 800320c:	6213      	str	r3, [r2, #32]
 800320e:	e01c      	b.n	800324a <HAL_RCC_OscConfig+0x36e>
 8003210:	687b      	ldr	r3, [r7, #4]
 8003212:	68db      	ldr	r3, [r3, #12]
 8003214:	2b05      	cmp	r3, #5
 8003216:	d10c      	bne.n	8003232 <HAL_RCC_OscConfig+0x356>
 8003218:	4b61      	ldr	r3, [pc, #388]	; (80033a0 <HAL_RCC_OscConfig+0x4c4>)
 800321a:	6a1b      	ldr	r3, [r3, #32]
 800321c:	4a60      	ldr	r2, [pc, #384]	; (80033a0 <HAL_RCC_OscConfig+0x4c4>)
 800321e:	f043 0304 	orr.w	r3, r3, #4
 8003222:	6213      	str	r3, [r2, #32]
 8003224:	4b5e      	ldr	r3, [pc, #376]	; (80033a0 <HAL_RCC_OscConfig+0x4c4>)
 8003226:	6a1b      	ldr	r3, [r3, #32]
 8003228:	4a5d      	ldr	r2, [pc, #372]	; (80033a0 <HAL_RCC_OscConfig+0x4c4>)
 800322a:	f043 0301 	orr.w	r3, r3, #1
 800322e:	6213      	str	r3, [r2, #32]
 8003230:	e00b      	b.n	800324a <HAL_RCC_OscConfig+0x36e>
 8003232:	4b5b      	ldr	r3, [pc, #364]	; (80033a0 <HAL_RCC_OscConfig+0x4c4>)
 8003234:	6a1b      	ldr	r3, [r3, #32]
 8003236:	4a5a      	ldr	r2, [pc, #360]	; (80033a0 <HAL_RCC_OscConfig+0x4c4>)
 8003238:	f023 0301 	bic.w	r3, r3, #1
 800323c:	6213      	str	r3, [r2, #32]
 800323e:	4b58      	ldr	r3, [pc, #352]	; (80033a0 <HAL_RCC_OscConfig+0x4c4>)
 8003240:	6a1b      	ldr	r3, [r3, #32]
 8003242:	4a57      	ldr	r2, [pc, #348]	; (80033a0 <HAL_RCC_OscConfig+0x4c4>)
 8003244:	f023 0304 	bic.w	r3, r3, #4
 8003248:	6213      	str	r3, [r2, #32]
 800324a:	687b      	ldr	r3, [r7, #4]
 800324c:	68db      	ldr	r3, [r3, #12]
 800324e:	2b00      	cmp	r3, #0
 8003250:	d015      	beq.n	800327e <HAL_RCC_OscConfig+0x3a2>
 8003252:	f7fe fefd 	bl	8002050 <HAL_GetTick>
 8003256:	6138      	str	r0, [r7, #16]
 8003258:	e00a      	b.n	8003270 <HAL_RCC_OscConfig+0x394>
 800325a:	f7fe fef9 	bl	8002050 <HAL_GetTick>
 800325e:	4602      	mov	r2, r0
 8003260:	693b      	ldr	r3, [r7, #16]
 8003262:	1ad3      	subs	r3, r2, r3
 8003264:	f241 3288 	movw	r2, #5000	; 0x1388
 8003268:	4293      	cmp	r3, r2
 800326a:	d901      	bls.n	8003270 <HAL_RCC_OscConfig+0x394>
 800326c:	2303      	movs	r3, #3
 800326e:	e0b1      	b.n	80033d4 <HAL_RCC_OscConfig+0x4f8>
 8003270:	4b4b      	ldr	r3, [pc, #300]	; (80033a0 <HAL_RCC_OscConfig+0x4c4>)
 8003272:	6a1b      	ldr	r3, [r3, #32]
 8003274:	f003 0302 	and.w	r3, r3, #2
 8003278:	2b00      	cmp	r3, #0
 800327a:	d0ee      	beq.n	800325a <HAL_RCC_OscConfig+0x37e>
 800327c:	e014      	b.n	80032a8 <HAL_RCC_OscConfig+0x3cc>
 800327e:	f7fe fee7 	bl	8002050 <HAL_GetTick>
 8003282:	6138      	str	r0, [r7, #16]
 8003284:	e00a      	b.n	800329c <HAL_RCC_OscConfig+0x3c0>
 8003286:	f7fe fee3 	bl	8002050 <HAL_GetTick>
 800328a:	4602      	mov	r2, r0
 800328c:	693b      	ldr	r3, [r7, #16]
 800328e:	1ad3      	subs	r3, r2, r3
 8003290:	f241 3288 	movw	r2, #5000	; 0x1388
 8003294:	4293      	cmp	r3, r2
 8003296:	d901      	bls.n	800329c <HAL_RCC_OscConfig+0x3c0>
 8003298:	2303      	movs	r3, #3
 800329a:	e09b      	b.n	80033d4 <HAL_RCC_OscConfig+0x4f8>
 800329c:	4b40      	ldr	r3, [pc, #256]	; (80033a0 <HAL_RCC_OscConfig+0x4c4>)
 800329e:	6a1b      	ldr	r3, [r3, #32]
 80032a0:	f003 0302 	and.w	r3, r3, #2
 80032a4:	2b00      	cmp	r3, #0
 80032a6:	d1ee      	bne.n	8003286 <HAL_RCC_OscConfig+0x3aa>
 80032a8:	7dfb      	ldrb	r3, [r7, #23]
 80032aa:	2b01      	cmp	r3, #1
 80032ac:	d105      	bne.n	80032ba <HAL_RCC_OscConfig+0x3de>
 80032ae:	4b3c      	ldr	r3, [pc, #240]	; (80033a0 <HAL_RCC_OscConfig+0x4c4>)
 80032b0:	69db      	ldr	r3, [r3, #28]
 80032b2:	4a3b      	ldr	r2, [pc, #236]	; (80033a0 <HAL_RCC_OscConfig+0x4c4>)
 80032b4:	f023 5380 	bic.w	r3, r3, #268435456	; 0x10000000
 80032b8:	61d3      	str	r3, [r2, #28]
 80032ba:	687b      	ldr	r3, [r7, #4]
 80032bc:	69db      	ldr	r3, [r3, #28]
 80032be:	2b00      	cmp	r3, #0
 80032c0:	f000 8087 	beq.w	80033d2 <HAL_RCC_OscConfig+0x4f6>
 80032c4:	4b36      	ldr	r3, [pc, #216]	; (80033a0 <HAL_RCC_OscConfig+0x4c4>)
 80032c6:	685b      	ldr	r3, [r3, #4]
 80032c8:	f003 030c 	and.w	r3, r3, #12
 80032cc:	2b08      	cmp	r3, #8
 80032ce:	d061      	beq.n	8003394 <HAL_RCC_OscConfig+0x4b8>
 80032d0:	687b      	ldr	r3, [r7, #4]
 80032d2:	69db      	ldr	r3, [r3, #28]
 80032d4:	2b02      	cmp	r3, #2
 80032d6:	d146      	bne.n	8003366 <HAL_RCC_OscConfig+0x48a>
 80032d8:	4b33      	ldr	r3, [pc, #204]	; (80033a8 <HAL_RCC_OscConfig+0x4cc>)
 80032da:	2200      	movs	r2, #0
 80032dc:	601a      	str	r2, [r3, #0]
 80032de:	f7fe feb7 	bl	8002050 <HAL_GetTick>
 80032e2:	6138      	str	r0, [r7, #16]
 80032e4:	e008      	b.n	80032f8 <HAL_RCC_OscConfig+0x41c>
 80032e6:	f7fe feb3 	bl	8002050 <HAL_GetTick>
 80032ea:	4602      	mov	r2, r0
 80032ec:	693b      	ldr	r3, [r7, #16]
 80032ee:	1ad3      	subs	r3, r2, r3
 80032f0:	2b02      	cmp	r3, #2
 80032f2:	d901      	bls.n	80032f8 <HAL_RCC_OscConfig+0x41c>
 80032f4:	2303      	movs	r3, #3
 80032f6:	e06d      	b.n	80033d4 <HAL_RCC_OscConfig+0x4f8>
 80032f8:	4b29      	ldr	r3, [pc, #164]	; (80033a0 <HAL_RCC_OscConfig+0x4c4>)
 80032fa:	681b      	ldr	r3, [r3, #0]
 80032fc:	f003 7300 	and.w	r3, r3, #33554432	; 0x2000000
 8003300:	2b00      	cmp	r3, #0
 8003302:	d1f0      	bne.n	80032e6 <HAL_RCC_OscConfig+0x40a>
 8003304:	687b      	ldr	r3, [r7, #4]
 8003306:	6a1b      	ldr	r3, [r3, #32]
 8003308:	f5b3 3f80 	cmp.w	r3, #65536	; 0x10000
 800330c:	d108      	bne.n	8003320 <HAL_RCC_OscConfig+0x444>
 800330e:	4b24      	ldr	r3, [pc, #144]	; (80033a0 <HAL_RCC_OscConfig+0x4c4>)
 8003310:	685b      	ldr	r3, [r3, #4]
 8003312:	f423 3200 	bic.w	r2, r3, #131072	; 0x20000
 8003316:	687b      	ldr	r3, [r7, #4]
 8003318:	689b      	ldr	r3, [r3, #8]
 800331a:	4921      	ldr	r1, [pc, #132]	; (80033a0 <HAL_RCC_OscConfig+0x4c4>)
 800331c:	4313      	orrs	r3, r2
 800331e:	604b      	str	r3, [r1, #4]
 8003320:	4b1f      	ldr	r3, [pc, #124]	; (80033a0 <HAL_RCC_OscConfig+0x4c4>)
 8003322:	685b      	ldr	r3, [r3, #4]
 8003324:	f423 1274 	bic.w	r2, r3, #3997696	; 0x3d0000
 8003328:	687b      	ldr	r3, [r7, #4]
 800332a:	6a19      	ldr	r1, [r3, #32]
 800332c:	687b      	ldr	r3, [r7, #4]
 800332e:	6a5b      	ldr	r3, [r3, #36]	; 0x24
 8003330:	430b      	orrs	r3, r1
 8003332:	491b      	ldr	r1, [pc, #108]	; (80033a0 <HAL_RCC_OscConfig+0x4c4>)
 8003334:	4313      	orrs	r3, r2
 8003336:	604b      	str	r3, [r1, #4]
 8003338:	4b1b      	ldr	r3, [pc, #108]	; (80033a8 <HAL_RCC_OscConfig+0x4cc>)
 800333a:	2201      	movs	r2, #1
 800333c:	601a      	str	r2, [r3, #0]
 800333e:	f7fe fe87 	bl	8002050 <HAL_GetTick>
 8003342:	6138      	str	r0, [r7, #16]
 8003344:	e008      	b.n	8003358 <HAL_RCC_OscConfig+0x47c>
 8003346:	f7fe fe83 	bl	8002050 <HAL_GetTick>
 800334a:	4602      	mov	r2, r0
 800334c:	693b      	ldr	r3, [r7, #16]
 800334e:	1ad3      	subs	r3, r2, r3
 8003350:	2b02      	cmp	r3, #2
 8003352:	d901      	bls.n	8003358 <HAL_RCC_OscConfig+0x47c>
 8003354:	2303      	movs	r3, #3
 8003356:	e03d      	b.n	80033d4 <HAL_RCC_OscConfig+0x4f8>
 8003358:	4b11      	ldr	r3, [pc, #68]	; (80033a0 <HAL_RCC_OscConfig+0x4c4>)
 800335a:	681b      	ldr	r3, [r3, #0]
 800335c:	f003 7300 	and.w	r3, r3, #33554432	; 0x2000000
 8003360:	2b00      	cmp	r3, #0
 8003362:	d0f0      	beq.n	8003346 <HAL_RCC_OscConfig+0x46a>
 8003364:	e035      	b.n	80033d2 <HAL_RCC_OscConfig+0x4f6>
 8003366:	4b10      	ldr	r3, [pc, #64]	; (80033a8 <HAL_RCC_OscConfig+0x4cc>)
 8003368:	2200      	movs	r2, #0
 800336a:	601a      	str	r2, [r3, #0]
 800336c:	f7fe fe70 	bl	8002050 <HAL_GetTick>
 8003370:	6138      	str	r0, [r7, #16]
 8003372:	e008      	b.n	8003386 <HAL_RCC_OscConfig+0x4aa>
 8003374:	f7fe fe6c 	bl	8002050 <HAL_GetTick>
 8003378:	4602      	mov	r2, r0
 800337a:	693b      	ldr	r3, [r7, #16]
 800337c:	1ad3      	subs	r3, r2, r3
 800337e:	2b02      	cmp	r3, #2
 8003380:	d901      	bls.n	8003386 <HAL_RCC_OscConfig+0x4aa>
 8003382:	2303      	movs	r3, #3
 8003384:	e026      	b.n	80033d4 <HAL_RCC_OscConfig+0x4f8>
 8003386:	4b06      	ldr	r3, [pc, #24]	; (80033a0 <HAL_RCC_OscConfig+0x4c4>)
 8003388:	681b      	ldr	r3, [r3, #0]
 800338a:	f003 7300 	and.w	r3, r3, #33554432	; 0x2000000
 800338e:	2b00      	cmp	r3, #0
 8003390:	d1f0      	bne.n	8003374 <HAL_RCC_OscConfig+0x498>
 8003392:	e01e      	b.n	80033d2 <HAL_RCC_OscConfig+0x4f6>
 8003394:	687b      	ldr	r3, [r7, #4]
 8003396:	69db      	ldr	r3, [r3, #28]
 8003398:	2b01      	cmp	r3, #1
 800339a:	d107      	bne.n	80033ac <HAL_RCC_OscConfig+0x4d0>
 800339c:	2301      	movs	r3, #1
 800339e:	e019      	b.n	80033d4 <HAL_RCC_OscConfig+0x4f8>
 80033a0:	40021000 	.word	0x40021000
 80033a4:	40007000 	.word	0x40007000
 80033a8:	42420060 	.word	0x42420060
 80033ac:	4b0b      	ldr	r3, [pc, #44]	; (80033dc <HAL_RCC_OscConfig+0x500>)
 80033ae:	685b      	ldr	r3, [r3, #4]
 80033b0:	60fb      	str	r3, [r7, #12]
 80033b2:	68fb      	ldr	r3, [r7, #12]
 80033b4:	f403 3280 	and.w	r2, r3, #65536	; 0x10000
 80033b8:	687b      	ldr	r3, [r7, #4]
 80033ba:	6a1b      	ldr	r3, [r3, #32]
 80033bc:	429a      	cmp	r2, r3
 80033be:	d106      	bne.n	80033ce <HAL_RCC_OscConfig+0x4f2>
 80033c0:	68fb      	ldr	r3, [r7, #12]
 80033c2:	f403 1270 	and.w	r2, r3, #3932160	; 0x3c0000
 80033c6:	687b      	ldr	r3, [r7, #4]
 80033c8:	6a5b      	ldr	r3, [r3, #36]	; 0x24
 80033ca:	429a      	cmp	r2, r3
 80033cc:	d001      	beq.n	80033d2 <HAL_RCC_OscConfig+0x4f6>
 80033ce:	2301      	movs	r3, #1
 80033d0:	e000      	b.n	80033d4 <HAL_RCC_OscConfig+0x4f8>
 80033d2:	2300      	movs	r3, #0
 80033d4:	4618      	mov	r0, r3
 80033d6:	3718      	adds	r7, #24
 80033d8:	46bd      	mov	sp, r7
 80033da:	bd80      	pop	{r7, pc}
 80033dc:	40021000 	.word	0x40021000

080033e0 <HAL_RCC_ClockConfig>:
 80033e0:	b580      	push	{r7, lr}
 80033e2:	b084      	sub	sp, #16
 80033e4:	af00      	add	r7, sp, #0
 80033e6:	6078      	str	r0, [r7, #4]
 80033e8:	6039      	str	r1, [r7, #0]
 80033ea:	687b      	ldr	r3, [r7, #4]
 80033ec:	2b00      	cmp	r3, #0
 80033ee:	d101      	bne.n	80033f4 <HAL_RCC_ClockConfig+0x14>
 80033f0:	2301      	movs	r3, #1
 80033f2:	e0d0      	b.n	8003596 <HAL_RCC_ClockConfig+0x1b6>
 80033f4:	4b6a      	ldr	r3, [pc, #424]	; (80035a0 <HAL_RCC_ClockConfig+0x1c0>)
 80033f6:	681b      	ldr	r3, [r3, #0]
 80033f8:	f003 0307 	and.w	r3, r3, #7
 80033fc:	683a      	ldr	r2, [r7, #0]
 80033fe:	429a      	cmp	r2, r3
 8003400:	d910      	bls.n	8003424 <HAL_RCC_ClockConfig+0x44>
 8003402:	4b67      	ldr	r3, [pc, #412]	; (80035a0 <HAL_RCC_ClockConfig+0x1c0>)
 8003404:	681b      	ldr	r3, [r3, #0]
 8003406:	f023 0207 	bic.w	r2, r3, #7
 800340a:	4965      	ldr	r1, [pc, #404]	; (80035a0 <HAL_RCC_ClockConfig+0x1c0>)
 800340c:	683b      	ldr	r3, [r7, #0]
 800340e:	4313      	orrs	r3, r2
 8003410:	600b      	str	r3, [r1, #0]
 8003412:	4b63      	ldr	r3, [pc, #396]	; (80035a0 <HAL_RCC_ClockConfig+0x1c0>)
 8003414:	681b      	ldr	r3, [r3, #0]
 8003416:	f003 0307 	and.w	r3, r3, #7
 800341a:	683a      	ldr	r2, [r7, #0]
 800341c:	429a      	cmp	r2, r3
 800341e:	d001      	beq.n	8003424 <HAL_RCC_ClockConfig+0x44>
 8003420:	2301      	movs	r3, #1
 8003422:	e0b8      	b.n	8003596 <HAL_RCC_ClockConfig+0x1b6>
 8003424:	687b      	ldr	r3, [r7, #4]
 8003426:	681b      	ldr	r3, [r3, #0]
 8003428:	f003 0302 	and.w	r3, r3, #2
 800342c:	2b00      	cmp	r3, #0
 800342e:	d020      	beq.n	8003472 <HAL_RCC_ClockConfig+0x92>
 8003430:	687b      	ldr	r3, [r7, #4]
 8003432:	681b      	ldr	r3, [r3, #0]
 8003434:	f003 0304 	and.w	r3, r3, #4
 8003438:	2b00      	cmp	r3, #0
 800343a:	d005      	beq.n	8003448 <HAL_RCC_ClockConfig+0x68>
 800343c:	4b59      	ldr	r3, [pc, #356]	; (80035a4 <HAL_RCC_ClockConfig+0x1c4>)
 800343e:	685b      	ldr	r3, [r3, #4]
 8003440:	4a58      	ldr	r2, [pc, #352]	; (80035a4 <HAL_RCC_ClockConfig+0x1c4>)
 8003442:	f443 63e0 	orr.w	r3, r3, #1792	; 0x700
 8003446:	6053      	str	r3, [r2, #4]
 8003448:	687b      	ldr	r3, [r7, #4]
 800344a:	681b      	ldr	r3, [r3, #0]
 800344c:	f003 0308 	and.w	r3, r3, #8
 8003450:	2b00      	cmp	r3, #0
 8003452:	d005      	beq.n	8003460 <HAL_RCC_ClockConfig+0x80>
 8003454:	4b53      	ldr	r3, [pc, #332]	; (80035a4 <HAL_RCC_ClockConfig+0x1c4>)
 8003456:	685b      	ldr	r3, [r3, #4]
 8003458:	4a52      	ldr	r2, [pc, #328]	; (80035a4 <HAL_RCC_ClockConfig+0x1c4>)
 800345a:	f443 5360 	orr.w	r3, r3, #14336	; 0x3800
 800345e:	6053      	str	r3, [r2, #4]
 8003460:	4b50      	ldr	r3, [pc, #320]	; (80035a4 <HAL_RCC_ClockConfig+0x1c4>)
 8003462:	685b      	ldr	r3, [r3, #4]
 8003464:	f023 02f0 	bic.w	r2, r3, #240	; 0xf0
 8003468:	687b      	ldr	r3, [r7, #4]
 800346a:	689b      	ldr	r3, [r3, #8]
 800346c:	494d      	ldr	r1, [pc, #308]	; (80035a4 <HAL_RCC_ClockConfig+0x1c4>)
 800346e:	4313      	orrs	r3, r2
 8003470:	604b      	str	r3, [r1, #4]
 8003472:	687b      	ldr	r3, [r7, #4]
 8003474:	681b      	ldr	r3, [r3, #0]
 8003476:	f003 0301 	and.w	r3, r3, #1
 800347a:	2b00      	cmp	r3, #0
 800347c:	d040      	beq.n	8003500 <HAL_RCC_ClockConfig+0x120>
 800347e:	687b      	ldr	r3, [r7, #4]
 8003480:	685b      	ldr	r3, [r3, #4]
 8003482:	2b01      	cmp	r3, #1
 8003484:	d107      	bne.n	8003496 <HAL_RCC_ClockConfig+0xb6>
 8003486:	4b47      	ldr	r3, [pc, #284]	; (80035a4 <HAL_RCC_ClockConfig+0x1c4>)
 8003488:	681b      	ldr	r3, [r3, #0]
 800348a:	f403 3300 	and.w	r3, r3, #131072	; 0x20000
 800348e:	2b00      	cmp	r3, #0
 8003490:	d115      	bne.n	80034be <HAL_RCC_ClockConfig+0xde>
 8003492:	2301      	movs	r3, #1
 8003494:	e07f      	b.n	8003596 <HAL_RCC_ClockConfig+0x1b6>
 8003496:	687b      	ldr	r3, [r7, #4]
 8003498:	685b      	ldr	r3, [r3, #4]
 800349a:	2b02      	cmp	r3, #2
 800349c:	d107      	bne.n	80034ae <HAL_RCC_ClockConfig+0xce>
 800349e:	4b41      	ldr	r3, [pc, #260]	; (80035a4 <HAL_RCC_ClockConfig+0x1c4>)
 80034a0:	681b      	ldr	r3, [r3, #0]
 80034a2:	f003 7300 	and.w	r3, r3, #33554432	; 0x2000000
 80034a6:	2b00      	cmp	r3, #0
 80034a8:	d109      	bne.n	80034be <HAL_RCC_ClockConfig+0xde>
 80034aa:	2301      	movs	r3, #1
 80034ac:	e073      	b.n	8003596 <HAL_RCC_ClockConfig+0x1b6>
 80034ae:	4b3d      	ldr	r3, [pc, #244]	; (80035a4 <HAL_RCC_ClockConfig+0x1c4>)
 80034b0:	681b      	ldr	r3, [r3, #0]
 80034b2:	f003 0302 	and.w	r3, r3, #2
 80034b6:	2b00      	cmp	r3, #0
 80034b8:	d101      	bne.n	80034be <HAL_RCC_ClockConfig+0xde>
 80034ba:	2301      	movs	r3, #1
 80034bc:	e06b      	b.n	8003596 <HAL_RCC_ClockConfig+0x1b6>
 80034be:	4b39      	ldr	r3, [pc, #228]	; (80035a4 <HAL_RCC_ClockConfig+0x1c4>)
 80034c0:	685b      	ldr	r3, [r3, #4]
 80034c2:	f023 0203 	bic.w	r2, r3, #3
 80034c6:	687b      	ldr	r3, [r7, #4]
 80034c8:	685b      	ldr	r3, [r3, #4]
 80034ca:	4936      	ldr	r1, [pc, #216]	; (80035a4 <HAL_RCC_ClockConfig+0x1c4>)
 80034cc:	4313      	orrs	r3, r2
 80034ce:	604b      	str	r3, [r1, #4]
 80034d0:	f7fe fdbe 	bl	8002050 <HAL_GetTick>
 80034d4:	60f8      	str	r0, [r7, #12]
 80034d6:	e00a      	b.n	80034ee <HAL_RCC_ClockConfig+0x10e>
 80034d8:	f7fe fdba 	bl	8002050 <HAL_GetTick>
 80034dc:	4602      	mov	r2, r0
 80034de:	68fb      	ldr	r3, [r7, #12]
 80034e0:	1ad3      	subs	r3, r2, r3
 80034e2:	f241 3288 	movw	r2, #5000	; 0x1388
 80034e6:	4293      	cmp	r3, r2
 80034e8:	d901      	bls.n	80034ee <HAL_RCC_ClockConfig+0x10e>
 80034ea:	2303      	movs	r3, #3
 80034ec:	e053      	b.n	8003596 <HAL_RCC_ClockConfig+0x1b6>
 80034ee:	4b2d      	ldr	r3, [pc, #180]	; (80035a4 <HAL_RCC_ClockConfig+0x1c4>)
 80034f0:	685b      	ldr	r3, [r3, #4]
 80034f2:	f003 020c 	and.w	r2, r3, #12
 80034f6:	687b      	ldr	r3, [r7, #4]
 80034f8:	685b      	ldr	r3, [r3, #4]
 80034fa:	009b      	lsls	r3, r3, #2
 80034fc:	429a      	cmp	r2, r3
 80034fe:	d1eb      	bne.n	80034d8 <HAL_RCC_ClockConfig+0xf8>
 8003500:	4b27      	ldr	r3, [pc, #156]	; (80035a0 <HAL_RCC_ClockConfig+0x1c0>)
 8003502:	681b      	ldr	r3, [r3, #0]
 8003504:	f003 0307 	and.w	r3, r3, #7
 8003508:	683a      	ldr	r2, [r7, #0]
 800350a:	429a      	cmp	r2, r3
 800350c:	d210      	bcs.n	8003530 <HAL_RCC_ClockConfig+0x150>
 800350e:	4b24      	ldr	r3, [pc, #144]	; (80035a0 <HAL_RCC_ClockConfig+0x1c0>)
 8003510:	681b      	ldr	r3, [r3, #0]
 8003512:	f023 0207 	bic.w	r2, r3, #7
 8003516:	4922      	ldr	r1, [pc, #136]	; (80035a0 <HAL_RCC_ClockConfig+0x1c0>)
 8003518:	683b      	ldr	r3, [r7, #0]
 800351a:	4313      	orrs	r3, r2
 800351c:	600b      	str	r3, [r1, #0]
 800351e:	4b20      	ldr	r3, [pc, #128]	; (80035a0 <HAL_RCC_ClockConfig+0x1c0>)
 8003520:	681b      	ldr	r3, [r3, #0]
 8003522:	f003 0307 	and.w	r3, r3, #7
 8003526:	683a      	ldr	r2, [r7, #0]
 8003528:	429a      	cmp	r2, r3
 800352a:	d001      	beq.n	8003530 <HAL_RCC_ClockConfig+0x150>
 800352c:	2301      	movs	r3, #1
 800352e:	e032      	b.n	8003596 <HAL_RCC_ClockConfig+0x1b6>
 8003530:	687b      	ldr	r3, [r7, #4]
 8003532:	681b      	ldr	r3, [r3, #0]
 8003534:	f003 0304 	and.w	r3, r3, #4
 8003538:	2b00      	cmp	r3, #0
 800353a:	d008      	beq.n	800354e <HAL_RCC_ClockConfig+0x16e>
 800353c:	4b19      	ldr	r3, [pc, #100]	; (80035a4 <HAL_RCC_ClockConfig+0x1c4>)
 800353e:	685b      	ldr	r3, [r3, #4]
 8003540:	f423 62e0 	bic.w	r2, r3, #1792	; 0x700
 8003544:	687b      	ldr	r3, [r7, #4]
 8003546:	68db      	ldr	r3, [r3, #12]
 8003548:	4916      	ldr	r1, [pc, #88]	; (80035a4 <HAL_RCC_ClockConfig+0x1c4>)
 800354a:	4313      	orrs	r3, r2
 800354c:	604b      	str	r3, [r1, #4]
 800354e:	687b      	ldr	r3, [r7, #4]
 8003550:	681b      	ldr	r3, [r3, #0]
 8003552:	f003 0308 	and.w	r3, r3, #8
 8003556:	2b00      	cmp	r3, #0
 8003558:	d009      	beq.n	800356e <HAL_RCC_ClockConfig+0x18e>
 800355a:	4b12      	ldr	r3, [pc, #72]	; (80035a4 <HAL_RCC_ClockConfig+0x1c4>)
 800355c:	685b      	ldr	r3, [r3, #4]
 800355e:	f423 5260 	bic.w	r2, r3, #14336	; 0x3800
 8003562:	687b      	ldr	r3, [r7, #4]
 8003564:	691b      	ldr	r3, [r3, #16]
 8003566:	00db      	lsls	r3, r3, #3
 8003568:	490e      	ldr	r1, [pc, #56]	; (80035a4 <HAL_RCC_ClockConfig+0x1c4>)
 800356a:	4313      	orrs	r3, r2
 800356c:	604b      	str	r3, [r1, #4]
 800356e:	f000 f821 	bl	80035b4 <HAL_RCC_GetSysClockFreq>
 8003572:	4602      	mov	r2, r0
 8003574:	4b0b      	ldr	r3, [pc, #44]	; (80035a4 <HAL_RCC_ClockConfig+0x1c4>)
 8003576:	685b      	ldr	r3, [r3, #4]
 8003578:	091b      	lsrs	r3, r3, #4
 800357a:	f003 030f 	and.w	r3, r3, #15
 800357e:	490a      	ldr	r1, [pc, #40]	; (80035a8 <HAL_RCC_ClockConfig+0x1c8>)
 8003580:	5ccb      	ldrb	r3, [r1, r3]
 8003582:	fa22 f303 	lsr.w	r3, r2, r3
 8003586:	4a09      	ldr	r2, [pc, #36]	; (80035ac <HAL_RCC_ClockConfig+0x1cc>)
 8003588:	6013      	str	r3, [r2, #0]
 800358a:	4b09      	ldr	r3, [pc, #36]	; (80035b0 <HAL_RCC_ClockConfig+0x1d0>)
 800358c:	681b      	ldr	r3, [r3, #0]
 800358e:	4618      	mov	r0, r3
 8003590:	f7fe fd1c 	bl	8001fcc <HAL_InitTick>
 8003594:	2300      	movs	r3, #0
 8003596:	4618      	mov	r0, r3
 8003598:	3710      	adds	r7, #16
 800359a:	46bd      	mov	sp, r7
 800359c:	bd80      	pop	{r7, pc}
 800359e:	bf00      	nop
 80035a0:	40022000 	.word	0x40022000
 80035a4:	40021000 	.word	0x40021000
 80035a8:	08004d04 	.word	0x08004d04
 80035ac:	20000028 	.word	0x20000028
 80035b0:	2000002c 	.word	0x2000002c

080035b4 <HAL_RCC_GetSysClockFreq>:
 80035b4:	b490      	push	{r4, r7}
 80035b6:	b08a      	sub	sp, #40	; 0x28
 80035b8:	af00      	add	r7, sp, #0
 80035ba:	4b29      	ldr	r3, [pc, #164]	; (8003660 <HAL_RCC_GetSysClockFreq+0xac>)
 80035bc:	1d3c      	adds	r4, r7, #4
 80035be:	cb0f      	ldmia	r3, {r0, r1, r2, r3}
 80035c0:	e884 000f 	stmia.w	r4, {r0, r1, r2, r3}
 80035c4:	f240 2301 	movw	r3, #513	; 0x201
 80035c8:	803b      	strh	r3, [r7, #0]
 80035ca:	2300      	movs	r3, #0
 80035cc:	61fb      	str	r3, [r7, #28]
 80035ce:	2300      	movs	r3, #0
 80035d0:	61bb      	str	r3, [r7, #24]
 80035d2:	2300      	movs	r3, #0
 80035d4:	627b      	str	r3, [r7, #36]	; 0x24
 80035d6:	2300      	movs	r3, #0
 80035d8:	617b      	str	r3, [r7, #20]
 80035da:	2300      	movs	r3, #0
 80035dc:	623b      	str	r3, [r7, #32]
 80035de:	4b21      	ldr	r3, [pc, #132]	; (8003664 <HAL_RCC_GetSysClockFreq+0xb0>)
 80035e0:	685b      	ldr	r3, [r3, #4]
 80035e2:	61fb      	str	r3, [r7, #28]
 80035e4:	69fb      	ldr	r3, [r7, #28]
 80035e6:	f003 030c 	and.w	r3, r3, #12
 80035ea:	2b04      	cmp	r3, #4
 80035ec:	d002      	beq.n	80035f4 <HAL_RCC_GetSysClockFreq+0x40>
 80035ee:	2b08      	cmp	r3, #8
 80035f0:	d003      	beq.n	80035fa <HAL_RCC_GetSysClockFreq+0x46>
 80035f2:	e02b      	b.n	800364c <HAL_RCC_GetSysClockFreq+0x98>
 80035f4:	4b1c      	ldr	r3, [pc, #112]	; (8003668 <HAL_RCC_GetSysClockFreq+0xb4>)
 80035f6:	623b      	str	r3, [r7, #32]
 80035f8:	e02b      	b.n	8003652 <HAL_RCC_GetSysClockFreq+0x9e>
 80035fa:	69fb      	ldr	r3, [r7, #28]
 80035fc:	0c9b      	lsrs	r3, r3, #18
 80035fe:	f003 030f 	and.w	r3, r3, #15
 8003602:	3328      	adds	r3, #40	; 0x28
 8003604:	443b      	add	r3, r7
 8003606:	f813 3c24 	ldrb.w	r3, [r3, #-36]
 800360a:	617b      	str	r3, [r7, #20]
 800360c:	69fb      	ldr	r3, [r7, #28]
 800360e:	f403 3380 	and.w	r3, r3, #65536	; 0x10000
 8003612:	2b00      	cmp	r3, #0
 8003614:	d012      	beq.n	800363c <HAL_RCC_GetSysClockFreq+0x88>
 8003616:	4b13      	ldr	r3, [pc, #76]	; (8003664 <HAL_RCC_GetSysClockFreq+0xb0>)
 8003618:	685b      	ldr	r3, [r3, #4]
 800361a:	0c5b      	lsrs	r3, r3, #17
 800361c:	f003 0301 	and.w	r3, r3, #1
 8003620:	3328      	adds	r3, #40	; 0x28
 8003622:	443b      	add	r3, r7
 8003624:	f813 3c28 	ldrb.w	r3, [r3, #-40]
 8003628:	61bb      	str	r3, [r7, #24]
 800362a:	697b      	ldr	r3, [r7, #20]
 800362c:	4a0e      	ldr	r2, [pc, #56]	; (8003668 <HAL_RCC_GetSysClockFreq+0xb4>)
 800362e:	fb03 f202 	mul.w	r2, r3, r2
 8003632:	69bb      	ldr	r3, [r7, #24]
 8003634:	fbb2 f3f3 	udiv	r3, r2, r3
 8003638:	627b      	str	r3, [r7, #36]	; 0x24
 800363a:	e004      	b.n	8003646 <HAL_RCC_GetSysClockFreq+0x92>
 800363c:	697b      	ldr	r3, [r7, #20]
 800363e:	4a0b      	ldr	r2, [pc, #44]	; (800366c <HAL_RCC_GetSysClockFreq+0xb8>)
 8003640:	fb02 f303 	mul.w	r3, r2, r3
 8003644:	627b      	str	r3, [r7, #36]	; 0x24
 8003646:	6a7b      	ldr	r3, [r7, #36]	; 0x24
 8003648:	623b      	str	r3, [r7, #32]
 800364a:	e002      	b.n	8003652 <HAL_RCC_GetSysClockFreq+0x9e>
 800364c:	4b06      	ldr	r3, [pc, #24]	; (8003668 <HAL_RCC_GetSysClockFreq+0xb4>)
 800364e:	623b      	str	r3, [r7, #32]
 8003650:	bf00      	nop
 8003652:	6a3b      	ldr	r3, [r7, #32]
 8003654:	4618      	mov	r0, r3
 8003656:	3728      	adds	r7, #40	; 0x28
 8003658:	46bd      	mov	sp, r7
 800365a:	bc90      	pop	{r4, r7}
 800365c:	4770      	bx	lr
 800365e:	bf00      	nop
 8003660:	08004b5c 	.word	0x08004b5c
 8003664:	40021000 	.word	0x40021000
 8003668:	007a1200 	.word	0x007a1200
 800366c:	003d0900 	.word	0x003d0900

08003670 <HAL_RCC_GetHCLKFreq>:
 8003670:	b480      	push	{r7}
 8003672:	af00      	add	r7, sp, #0
 8003674:	4b02      	ldr	r3, [pc, #8]	; (8003680 <HAL_RCC_GetHCLKFreq+0x10>)
 8003676:	681b      	ldr	r3, [r3, #0]
 8003678:	4618      	mov	r0, r3
 800367a:	46bd      	mov	sp, r7
 800367c:	bc80      	pop	{r7}
 800367e:	4770      	bx	lr
 8003680:	20000028 	.word	0x20000028

08003684 <HAL_RCC_GetPCLK1Freq>:
 8003684:	b580      	push	{r7, lr}
 8003686:	af00      	add	r7, sp, #0
 8003688:	f7ff fff2 	bl	8003670 <HAL_RCC_GetHCLKFreq>
 800368c:	4602      	mov	r2, r0
 800368e:	4b05      	ldr	r3, [pc, #20]	; (80036a4 <HAL_RCC_GetPCLK1Freq+0x20>)
 8003690:	685b      	ldr	r3, [r3, #4]
 8003692:	0a1b      	lsrs	r3, r3, #8
 8003694:	f003 0307 	and.w	r3, r3, #7
 8003698:	4903      	ldr	r1, [pc, #12]	; (80036a8 <HAL_RCC_GetPCLK1Freq+0x24>)
 800369a:	5ccb      	ldrb	r3, [r1, r3]
 800369c:	fa22 f303 	lsr.w	r3, r2, r3
 80036a0:	4618      	mov	r0, r3
 80036a2:	bd80      	pop	{r7, pc}
 80036a4:	40021000 	.word	0x40021000
 80036a8:	08004d14 	.word	0x08004d14

080036ac <HAL_RCC_GetPCLK2Freq>:
 80036ac:	b580      	push	{r7, lr}
 80036ae:	af00      	add	r7, sp, #0
 80036b0:	f7ff ffde 	bl	8003670 <HAL_RCC_GetHCLKFreq>
 80036b4:	4602      	mov	r2, r0
 80036b6:	4b05      	ldr	r3, [pc, #20]	; (80036cc <HAL_RCC_GetPCLK2Freq+0x20>)
 80036b8:	685b      	ldr	r3, [r3, #4]
 80036ba:	0adb      	lsrs	r3, r3, #11
 80036bc:	f003 0307 	and.w	r3, r3, #7
 80036c0:	4903      	ldr	r1, [pc, #12]	; (80036d0 <HAL_RCC_GetPCLK2Freq+0x24>)
 80036c2:	5ccb      	ldrb	r3, [r1, r3]
 80036c4:	fa22 f303 	lsr.w	r3, r2, r3
 80036c8:	4618      	mov	r0, r3
 80036ca:	bd80      	pop	{r7, pc}
 80036cc:	40021000 	.word	0x40021000
 80036d0:	08004d14 	.word	0x08004d14

080036d4 <RCC_Delay>:
 80036d4:	b480      	push	{r7}
 80036d6:	b085      	sub	sp, #20
 80036d8:	af00      	add	r7, sp, #0
 80036da:	6078      	str	r0, [r7, #4]
 80036dc:	4b0a      	ldr	r3, [pc, #40]	; (8003708 <RCC_Delay+0x34>)
 80036de:	681b      	ldr	r3, [r3, #0]
 80036e0:	4a0a      	ldr	r2, [pc, #40]	; (800370c <RCC_Delay+0x38>)
 80036e2:	fba2 2303 	umull	r2, r3, r2, r3
 80036e6:	0a5b      	lsrs	r3, r3, #9
 80036e8:	687a      	ldr	r2, [r7, #4]
 80036ea:	fb02 f303 	mul.w	r3, r2, r3
 80036ee:	60fb      	str	r3, [r7, #12]
 80036f0:	bf00      	nop
 80036f2:	68fb      	ldr	r3, [r7, #12]
 80036f4:	1e5a      	subs	r2, r3, #1
 80036f6:	60fa      	str	r2, [r7, #12]
 80036f8:	2b00      	cmp	r3, #0
 80036fa:	d1f9      	bne.n	80036f0 <RCC_Delay+0x1c>
 80036fc:	bf00      	nop
 80036fe:	bf00      	nop
 8003700:	3714      	adds	r7, #20
 8003702:	46bd      	mov	sp, r7
 8003704:	bc80      	pop	{r7}
 8003706:	4770      	bx	lr
 8003708:	20000028 	.word	0x20000028
 800370c:	10624dd3 	.word	0x10624dd3

08003710 <HAL_RCCEx_PeriphCLKConfig>:
 8003710:	b580      	push	{r7, lr}
 8003712:	b086      	sub	sp, #24
 8003714:	af00      	add	r7, sp, #0
 8003716:	6078      	str	r0, [r7, #4]
 8003718:	2300      	movs	r3, #0
 800371a:	613b      	str	r3, [r7, #16]
 800371c:	2300      	movs	r3, #0
 800371e:	60fb      	str	r3, [r7, #12]
 8003720:	687b      	ldr	r3, [r7, #4]
 8003722:	681b      	ldr	r3, [r3, #0]
 8003724:	f003 0301 	and.w	r3, r3, #1
 8003728:	2b00      	cmp	r3, #0
 800372a:	d07d      	beq.n	8003828 <HAL_RCCEx_PeriphCLKConfig+0x118>
 800372c:	2300      	movs	r3, #0
 800372e:	75fb      	strb	r3, [r7, #23]
 8003730:	4b4f      	ldr	r3, [pc, #316]	; (8003870 <HAL_RCCEx_PeriphCLKConfig+0x160>)
 8003732:	69db      	ldr	r3, [r3, #28]
 8003734:	f003 5380 	and.w	r3, r3, #268435456	; 0x10000000
 8003738:	2b00      	cmp	r3, #0
 800373a:	d10d      	bne.n	8003758 <HAL_RCCEx_PeriphCLKConfig+0x48>
 800373c:	4b4c      	ldr	r3, [pc, #304]	; (8003870 <HAL_RCCEx_PeriphCLKConfig+0x160>)
 800373e:	69db      	ldr	r3, [r3, #28]
 8003740:	4a4b      	ldr	r2, [pc, #300]	; (8003870 <HAL_RCCEx_PeriphCLKConfig+0x160>)
 8003742:	f043 5380 	orr.w	r3, r3, #268435456	; 0x10000000
 8003746:	61d3      	str	r3, [r2, #28]
 8003748:	4b49      	ldr	r3, [pc, #292]	; (8003870 <HAL_RCCEx_PeriphCLKConfig+0x160>)
 800374a:	69db      	ldr	r3, [r3, #28]
 800374c:	f003 5380 	and.w	r3, r3, #268435456	; 0x10000000
 8003750:	60bb      	str	r3, [r7, #8]
 8003752:	68bb      	ldr	r3, [r7, #8]
 8003754:	2301      	movs	r3, #1
 8003756:	75fb      	strb	r3, [r7, #23]
 8003758:	4b46      	ldr	r3, [pc, #280]	; (8003874 <HAL_RCCEx_PeriphCLKConfig+0x164>)
 800375a:	681b      	ldr	r3, [r3, #0]
 800375c:	f403 7380 	and.w	r3, r3, #256	; 0x100
 8003760:	2b00      	cmp	r3, #0
 8003762:	d118      	bne.n	8003796 <HAL_RCCEx_PeriphCLKConfig+0x86>
 8003764:	4b43      	ldr	r3, [pc, #268]	; (8003874 <HAL_RCCEx_PeriphCLKConfig+0x164>)
 8003766:	681b      	ldr	r3, [r3, #0]
 8003768:	4a42      	ldr	r2, [pc, #264]	; (8003874 <HAL_RCCEx_PeriphCLKConfig+0x164>)
 800376a:	f443 7380 	orr.w	r3, r3, #256	; 0x100
 800376e:	6013      	str	r3, [r2, #0]
 8003770:	f7fe fc6e 	bl	8002050 <HAL_GetTick>
 8003774:	6138      	str	r0, [r7, #16]
 8003776:	e008      	b.n	800378a <HAL_RCCEx_PeriphCLKConfig+0x7a>
 8003778:	f7fe fc6a 	bl	8002050 <HAL_GetTick>
 800377c:	4602      	mov	r2, r0
 800377e:	693b      	ldr	r3, [r7, #16]
 8003780:	1ad3      	subs	r3, r2, r3
 8003782:	2b64      	cmp	r3, #100	; 0x64
 8003784:	d901      	bls.n	800378a <HAL_RCCEx_PeriphCLKConfig+0x7a>
 8003786:	2303      	movs	r3, #3
 8003788:	e06d      	b.n	8003866 <HAL_RCCEx_PeriphCLKConfig+0x156>
 800378a:	4b3a      	ldr	r3, [pc, #232]	; (8003874 <HAL_RCCEx_PeriphCLKConfig+0x164>)
 800378c:	681b      	ldr	r3, [r3, #0]
 800378e:	f403 7380 	and.w	r3, r3, #256	; 0x100
 8003792:	2b00      	cmp	r3, #0
 8003794:	d0f0      	beq.n	8003778 <HAL_RCCEx_PeriphCLKConfig+0x68>
 8003796:	4b36      	ldr	r3, [pc, #216]	; (8003870 <HAL_RCCEx_PeriphCLKConfig+0x160>)
 8003798:	6a1b      	ldr	r3, [r3, #32]
 800379a:	f403 7340 	and.w	r3, r3, #768	; 0x300
 800379e:	60fb      	str	r3, [r7, #12]
 80037a0:	68fb      	ldr	r3, [r7, #12]
 80037a2:	2b00      	cmp	r3, #0
 80037a4:	d02e      	beq.n	8003804 <HAL_RCCEx_PeriphCLKConfig+0xf4>
 80037a6:	687b      	ldr	r3, [r7, #4]
 80037a8:	685b      	ldr	r3, [r3, #4]
 80037aa:	f403 7340 	and.w	r3, r3, #768	; 0x300
 80037ae:	68fa      	ldr	r2, [r7, #12]
 80037b0:	429a      	cmp	r2, r3
 80037b2:	d027      	beq.n	8003804 <HAL_RCCEx_PeriphCLKConfig+0xf4>
 80037b4:	4b2e      	ldr	r3, [pc, #184]	; (8003870 <HAL_RCCEx_PeriphCLKConfig+0x160>)
 80037b6:	6a1b      	ldr	r3, [r3, #32]
 80037b8:	f423 7340 	bic.w	r3, r3, #768	; 0x300
 80037bc:	60fb      	str	r3, [r7, #12]
 80037be:	4b2e      	ldr	r3, [pc, #184]	; (8003878 <HAL_RCCEx_PeriphCLKConfig+0x168>)
 80037c0:	2201      	movs	r2, #1
 80037c2:	601a      	str	r2, [r3, #0]
 80037c4:	4b2c      	ldr	r3, [pc, #176]	; (8003878 <HAL_RCCEx_PeriphCLKConfig+0x168>)
 80037c6:	2200      	movs	r2, #0
 80037c8:	601a      	str	r2, [r3, #0]
 80037ca:	4a29      	ldr	r2, [pc, #164]	; (8003870 <HAL_RCCEx_PeriphCLKConfig+0x160>)
 80037cc:	68fb      	ldr	r3, [r7, #12]
 80037ce:	6213      	str	r3, [r2, #32]
 80037d0:	68fb      	ldr	r3, [r7, #12]
 80037d2:	f003 0301 	and.w	r3, r3, #1
 80037d6:	2b00      	cmp	r3, #0
 80037d8:	d014      	beq.n	8003804 <HAL_RCCEx_PeriphCLKConfig+0xf4>
 80037da:	f7fe fc39 	bl	8002050 <HAL_GetTick>
 80037de:	6138      	str	r0, [r7, #16]
 80037e0:	e00a      	b.n	80037f8 <HAL_RCCEx_PeriphCLKConfig+0xe8>
 80037e2:	f7fe fc35 	bl	8002050 <HAL_GetTick>
 80037e6:	4602      	mov	r2, r0
 80037e8:	693b      	ldr	r3, [r7, #16]
 80037ea:	1ad3      	subs	r3, r2, r3
 80037ec:	f241 3288 	movw	r2, #5000	; 0x1388
 80037f0:	4293      	cmp	r3, r2
 80037f2:	d901      	bls.n	80037f8 <HAL_RCCEx_PeriphCLKConfig+0xe8>
 80037f4:	2303      	movs	r3, #3
 80037f6:	e036      	b.n	8003866 <HAL_RCCEx_PeriphCLKConfig+0x156>
 80037f8:	4b1d      	ldr	r3, [pc, #116]	; (8003870 <HAL_RCCEx_PeriphCLKConfig+0x160>)
 80037fa:	6a1b      	ldr	r3, [r3, #32]
 80037fc:	f003 0302 	and.w	r3, r3, #2
 8003800:	2b00      	cmp	r3, #0
 8003802:	d0ee      	beq.n	80037e2 <HAL_RCCEx_PeriphCLKConfig+0xd2>
 8003804:	4b1a      	ldr	r3, [pc, #104]	; (8003870 <HAL_RCCEx_PeriphCLKConfig+0x160>)
 8003806:	6a1b      	ldr	r3, [r3, #32]
 8003808:	f423 7240 	bic.w	r2, r3, #768	; 0x300
 800380c:	687b      	ldr	r3, [r7, #4]
 800380e:	685b      	ldr	r3, [r3, #4]
 8003810:	4917      	ldr	r1, [pc, #92]	; (8003870 <HAL_RCCEx_PeriphCLKConfig+0x160>)
 8003812:	4313      	orrs	r3, r2
 8003814:	620b      	str	r3, [r1, #32]
 8003816:	7dfb      	ldrb	r3, [r7, #23]
 8003818:	2b01      	cmp	r3, #1
 800381a:	d105      	bne.n	8003828 <HAL_RCCEx_PeriphCLKConfig+0x118>
 800381c:	4b14      	ldr	r3, [pc, #80]	; (8003870 <HAL_RCCEx_PeriphCLKConfig+0x160>)
 800381e:	69db      	ldr	r3, [r3, #28]
 8003820:	4a13      	ldr	r2, [pc, #76]	; (8003870 <HAL_RCCEx_PeriphCLKConfig+0x160>)
 8003822:	f023 5380 	bic.w	r3, r3, #268435456	; 0x10000000
 8003826:	61d3      	str	r3, [r2, #28]
 8003828:	687b      	ldr	r3, [r7, #4]
 800382a:	681b      	ldr	r3, [r3, #0]
 800382c:	f003 0302 	and.w	r3, r3, #2
 8003830:	2b00      	cmp	r3, #0
 8003832:	d008      	beq.n	8003846 <HAL_RCCEx_PeriphCLKConfig+0x136>
 8003834:	4b0e      	ldr	r3, [pc, #56]	; (8003870 <HAL_RCCEx_PeriphCLKConfig+0x160>)
 8003836:	685b      	ldr	r3, [r3, #4]
 8003838:	f423 4240 	bic.w	r2, r3, #49152	; 0xc000
 800383c:	687b      	ldr	r3, [r7, #4]
 800383e:	689b      	ldr	r3, [r3, #8]
 8003840:	490b      	ldr	r1, [pc, #44]	; (8003870 <HAL_RCCEx_PeriphCLKConfig+0x160>)
 8003842:	4313      	orrs	r3, r2
 8003844:	604b      	str	r3, [r1, #4]
 8003846:	687b      	ldr	r3, [r7, #4]
 8003848:	681b      	ldr	r3, [r3, #0]
 800384a:	f003 0310 	and.w	r3, r3, #16
 800384e:	2b00      	cmp	r3, #0
 8003850:	d008      	beq.n	8003864 <HAL_RCCEx_PeriphCLKConfig+0x154>
 8003852:	4b07      	ldr	r3, [pc, #28]	; (8003870 <HAL_RCCEx_PeriphCLKConfig+0x160>)
 8003854:	685b      	ldr	r3, [r3, #4]
 8003856:	f423 0280 	bic.w	r2, r3, #4194304	; 0x400000
 800385a:	687b      	ldr	r3, [r7, #4]
 800385c:	68db      	ldr	r3, [r3, #12]
 800385e:	4904      	ldr	r1, [pc, #16]	; (8003870 <HAL_RCCEx_PeriphCLKConfig+0x160>)
 8003860:	4313      	orrs	r3, r2
 8003862:	604b      	str	r3, [r1, #4]
 8003864:	2300      	movs	r3, #0
 8003866:	4618      	mov	r0, r3
 8003868:	3718      	adds	r7, #24
 800386a:	46bd      	mov	sp, r7
 800386c:	bd80      	pop	{r7, pc}
 800386e:	bf00      	nop
 8003870:	40021000 	.word	0x40021000
 8003874:	40007000 	.word	0x40007000
 8003878:	42420440 	.word	0x42420440

0800387c <HAL_RCCEx_GetPeriphCLKFreq>:
 800387c:	b590      	push	{r4, r7, lr}
 800387e:	b08d      	sub	sp, #52	; 0x34
 8003880:	af00      	add	r7, sp, #0
 8003882:	6078      	str	r0, [r7, #4]
 8003884:	4b58      	ldr	r3, [pc, #352]	; (80039e8 <HAL_RCCEx_GetPeriphCLKFreq+0x16c>)
 8003886:	f107 040c 	add.w	r4, r7, #12
 800388a:	cb0f      	ldmia	r3, {r0, r1, r2, r3}
 800388c:	e884 000f 	stmia.w	r4, {r0, r1, r2, r3}
 8003890:	f240 2301 	movw	r3, #513	; 0x201
 8003894:	813b      	strh	r3, [r7, #8]
 8003896:	2300      	movs	r3, #0
 8003898:	627b      	str	r3, [r7, #36]	; 0x24
 800389a:	2300      	movs	r3, #0
 800389c:	62fb      	str	r3, [r7, #44]	; 0x2c
 800389e:	2300      	movs	r3, #0
 80038a0:	623b      	str	r3, [r7, #32]
 80038a2:	2300      	movs	r3, #0
 80038a4:	61fb      	str	r3, [r7, #28]
 80038a6:	2300      	movs	r3, #0
 80038a8:	62bb      	str	r3, [r7, #40]	; 0x28
 80038aa:	687b      	ldr	r3, [r7, #4]
 80038ac:	2b10      	cmp	r3, #16
 80038ae:	d00a      	beq.n	80038c6 <HAL_RCCEx_GetPeriphCLKFreq+0x4a>
 80038b0:	687b      	ldr	r3, [r7, #4]
 80038b2:	2b10      	cmp	r3, #16
 80038b4:	f200 808e 	bhi.w	80039d4 <HAL_RCCEx_GetPeriphCLKFreq+0x158>
 80038b8:	687b      	ldr	r3, [r7, #4]
 80038ba:	2b01      	cmp	r3, #1
 80038bc:	d049      	beq.n	8003952 <HAL_RCCEx_GetPeriphCLKFreq+0xd6>
 80038be:	687b      	ldr	r3, [r7, #4]
 80038c0:	2b02      	cmp	r3, #2
 80038c2:	d079      	beq.n	80039b8 <HAL_RCCEx_GetPeriphCLKFreq+0x13c>
 80038c4:	e086      	b.n	80039d4 <HAL_RCCEx_GetPeriphCLKFreq+0x158>
 80038c6:	4b49      	ldr	r3, [pc, #292]	; (80039ec <HAL_RCCEx_GetPeriphCLKFreq+0x170>)
 80038c8:	685b      	ldr	r3, [r3, #4]
 80038ca:	61fb      	str	r3, [r7, #28]
 80038cc:	4b47      	ldr	r3, [pc, #284]	; (80039ec <HAL_RCCEx_GetPeriphCLKFreq+0x170>)
 80038ce:	681b      	ldr	r3, [r3, #0]
 80038d0:	f003 7380 	and.w	r3, r3, #16777216	; 0x1000000
 80038d4:	2b00      	cmp	r3, #0
 80038d6:	d07f      	beq.n	80039d8 <HAL_RCCEx_GetPeriphCLKFreq+0x15c>
 80038d8:	69fb      	ldr	r3, [r7, #28]
 80038da:	0c9b      	lsrs	r3, r3, #18
 80038dc:	f003 030f 	and.w	r3, r3, #15
 80038e0:	3330      	adds	r3, #48	; 0x30
 80038e2:	443b      	add	r3, r7
 80038e4:	f813 3c24 	ldrb.w	r3, [r3, #-36]
 80038e8:	623b      	str	r3, [r7, #32]
 80038ea:	69fb      	ldr	r3, [r7, #28]
 80038ec:	f403 3380 	and.w	r3, r3, #65536	; 0x10000
 80038f0:	2b00      	cmp	r3, #0
 80038f2:	d017      	beq.n	8003924 <HAL_RCCEx_GetPeriphCLKFreq+0xa8>
 80038f4:	4b3d      	ldr	r3, [pc, #244]	; (80039ec <HAL_RCCEx_GetPeriphCLKFreq+0x170>)
 80038f6:	685b      	ldr	r3, [r3, #4]
 80038f8:	0c5b      	lsrs	r3, r3, #17
 80038fa:	f003 0301 	and.w	r3, r3, #1
 80038fe:	3330      	adds	r3, #48	; 0x30
 8003900:	443b      	add	r3, r7
 8003902:	f813 3c28 	ldrb.w	r3, [r3, #-40]
 8003906:	627b      	str	r3, [r7, #36]	; 0x24
 8003908:	69fb      	ldr	r3, [r7, #28]
 800390a:	f403 3380 	and.w	r3, r3, #65536	; 0x10000
 800390e:	2b00      	cmp	r3, #0
 8003910:	d00d      	beq.n	800392e <HAL_RCCEx_GetPeriphCLKFreq+0xb2>
 8003912:	4a37      	ldr	r2, [pc, #220]	; (80039f0 <HAL_RCCEx_GetPeriphCLKFreq+0x174>)
 8003914:	6a7b      	ldr	r3, [r7, #36]	; 0x24
 8003916:	fbb2 f2f3 	udiv	r2, r2, r3
 800391a:	6a3b      	ldr	r3, [r7, #32]
 800391c:	fb02 f303 	mul.w	r3, r2, r3
 8003920:	62fb      	str	r3, [r7, #44]	; 0x2c
 8003922:	e004      	b.n	800392e <HAL_RCCEx_GetPeriphCLKFreq+0xb2>
 8003924:	6a3b      	ldr	r3, [r7, #32]
 8003926:	4a33      	ldr	r2, [pc, #204]	; (80039f4 <HAL_RCCEx_GetPeriphCLKFreq+0x178>)
 8003928:	fb02 f303 	mul.w	r3, r2, r3
 800392c:	62fb      	str	r3, [r7, #44]	; 0x2c
 800392e:	4b2f      	ldr	r3, [pc, #188]	; (80039ec <HAL_RCCEx_GetPeriphCLKFreq+0x170>)
 8003930:	685b      	ldr	r3, [r3, #4]
 8003932:	f403 0380 	and.w	r3, r3, #4194304	; 0x400000
 8003936:	f5b3 0f80 	cmp.w	r3, #4194304	; 0x400000
 800393a:	d102      	bne.n	8003942 <HAL_RCCEx_GetPeriphCLKFreq+0xc6>
 800393c:	6afb      	ldr	r3, [r7, #44]	; 0x2c
 800393e:	62bb      	str	r3, [r7, #40]	; 0x28
 8003940:	e04a      	b.n	80039d8 <HAL_RCCEx_GetPeriphCLKFreq+0x15c>
 8003942:	6afb      	ldr	r3, [r7, #44]	; 0x2c
 8003944:	005b      	lsls	r3, r3, #1
 8003946:	4a2c      	ldr	r2, [pc, #176]	; (80039f8 <HAL_RCCEx_GetPeriphCLKFreq+0x17c>)
 8003948:	fba2 2303 	umull	r2, r3, r2, r3
 800394c:	085b      	lsrs	r3, r3, #1
 800394e:	62bb      	str	r3, [r7, #40]	; 0x28
 8003950:	e042      	b.n	80039d8 <HAL_RCCEx_GetPeriphCLKFreq+0x15c>
 8003952:	4b26      	ldr	r3, [pc, #152]	; (80039ec <HAL_RCCEx_GetPeriphCLKFreq+0x170>)
 8003954:	6a1b      	ldr	r3, [r3, #32]
 8003956:	61fb      	str	r3, [r7, #28]
 8003958:	69fb      	ldr	r3, [r7, #28]
 800395a:	f403 7340 	and.w	r3, r3, #768	; 0x300
 800395e:	f5b3 7f80 	cmp.w	r3, #256	; 0x100
 8003962:	d108      	bne.n	8003976 <HAL_RCCEx_GetPeriphCLKFreq+0xfa>
 8003964:	69fb      	ldr	r3, [r7, #28]
 8003966:	f003 0302 	and.w	r3, r3, #2
 800396a:	2b00      	cmp	r3, #0
 800396c:	d003      	beq.n	8003976 <HAL_RCCEx_GetPeriphCLKFreq+0xfa>
 800396e:	f44f 4300 	mov.w	r3, #32768	; 0x8000
 8003972:	62bb      	str	r3, [r7, #40]	; 0x28
 8003974:	e01f      	b.n	80039b6 <HAL_RCCEx_GetPeriphCLKFreq+0x13a>
 8003976:	69fb      	ldr	r3, [r7, #28]
 8003978:	f403 7340 	and.w	r3, r3, #768	; 0x300
 800397c:	f5b3 7f00 	cmp.w	r3, #512	; 0x200
 8003980:	d109      	bne.n	8003996 <HAL_RCCEx_GetPeriphCLKFreq+0x11a>
 8003982:	4b1a      	ldr	r3, [pc, #104]	; (80039ec <HAL_RCCEx_GetPeriphCLKFreq+0x170>)
 8003984:	6a5b      	ldr	r3, [r3, #36]	; 0x24
 8003986:	f003 0302 	and.w	r3, r3, #2
 800398a:	2b00      	cmp	r3, #0
 800398c:	d003      	beq.n	8003996 <HAL_RCCEx_GetPeriphCLKFreq+0x11a>
 800398e:	f649 4340 	movw	r3, #40000	; 0x9c40
 8003992:	62bb      	str	r3, [r7, #40]	; 0x28
 8003994:	e00f      	b.n	80039b6 <HAL_RCCEx_GetPeriphCLKFreq+0x13a>
 8003996:	69fb      	ldr	r3, [r7, #28]
 8003998:	f403 7340 	and.w	r3, r3, #768	; 0x300
 800399c:	f5b3 7f40 	cmp.w	r3, #768	; 0x300
 80039a0:	d11c      	bne.n	80039dc <HAL_RCCEx_GetPeriphCLKFreq+0x160>
 80039a2:	4b12      	ldr	r3, [pc, #72]	; (80039ec <HAL_RCCEx_GetPeriphCLKFreq+0x170>)
 80039a4:	681b      	ldr	r3, [r3, #0]
 80039a6:	f403 3300 	and.w	r3, r3, #131072	; 0x20000
 80039aa:	2b00      	cmp	r3, #0
 80039ac:	d016      	beq.n	80039dc <HAL_RCCEx_GetPeriphCLKFreq+0x160>
 80039ae:	f24f 4324 	movw	r3, #62500	; 0xf424
 80039b2:	62bb      	str	r3, [r7, #40]	; 0x28
 80039b4:	e012      	b.n	80039dc <HAL_RCCEx_GetPeriphCLKFreq+0x160>
 80039b6:	e011      	b.n	80039dc <HAL_RCCEx_GetPeriphCLKFreq+0x160>
 80039b8:	f7ff fe78 	bl	80036ac <HAL_RCC_GetPCLK2Freq>
 80039bc:	4602      	mov	r2, r0
 80039be:	4b0b      	ldr	r3, [pc, #44]	; (80039ec <HAL_RCCEx_GetPeriphCLKFreq+0x170>)
 80039c0:	685b      	ldr	r3, [r3, #4]
 80039c2:	0b9b      	lsrs	r3, r3, #14
 80039c4:	f003 0303 	and.w	r3, r3, #3
 80039c8:	3301      	adds	r3, #1
 80039ca:	005b      	lsls	r3, r3, #1
 80039cc:	fbb2 f3f3 	udiv	r3, r2, r3
 80039d0:	62bb      	str	r3, [r7, #40]	; 0x28
 80039d2:	e004      	b.n	80039de <HAL_RCCEx_GetPeriphCLKFreq+0x162>
 80039d4:	bf00      	nop
 80039d6:	e002      	b.n	80039de <HAL_RCCEx_GetPeriphCLKFreq+0x162>
 80039d8:	bf00      	nop
 80039da:	e000      	b.n	80039de <HAL_RCCEx_GetPeriphCLKFreq+0x162>
 80039dc:	bf00      	nop
 80039de:	6abb      	ldr	r3, [r7, #40]	; 0x28
 80039e0:	4618      	mov	r0, r3
 80039e2:	3734      	adds	r7, #52	; 0x34
 80039e4:	46bd      	mov	sp, r7
 80039e6:	bd90      	pop	{r4, r7, pc}
 80039e8:	08004b6c 	.word	0x08004b6c
 80039ec:	40021000 	.word	0x40021000
 80039f0:	007a1200 	.word	0x007a1200
 80039f4:	003d0900 	.word	0x003d0900
 80039f8:	aaaaaaab 	.word	0xaaaaaaab

080039fc <HAL_RTC_Init>:
 80039fc:	b580      	push	{r7, lr}
 80039fe:	b084      	sub	sp, #16
 8003a00:	af00      	add	r7, sp, #0
 8003a02:	6078      	str	r0, [r7, #4]
 8003a04:	2300      	movs	r3, #0
 8003a06:	60fb      	str	r3, [r7, #12]
 8003a08:	687b      	ldr	r3, [r7, #4]
 8003a0a:	2b00      	cmp	r3, #0
 8003a0c:	d101      	bne.n	8003a12 <HAL_RTC_Init+0x16>
 8003a0e:	2301      	movs	r3, #1
 8003a10:	e084      	b.n	8003b1c <HAL_RTC_Init+0x120>
 8003a12:	687b      	ldr	r3, [r7, #4]
 8003a14:	7c5b      	ldrb	r3, [r3, #17]
 8003a16:	b2db      	uxtb	r3, r3
 8003a18:	2b00      	cmp	r3, #0
 8003a1a:	d105      	bne.n	8003a28 <HAL_RTC_Init+0x2c>
 8003a1c:	687b      	ldr	r3, [r7, #4]
 8003a1e:	2200      	movs	r2, #0
 8003a20:	741a      	strb	r2, [r3, #16]
 8003a22:	6878      	ldr	r0, [r7, #4]
 8003a24:	f7fd fc5c 	bl	80012e0 <HAL_RTC_MspInit>
 8003a28:	687b      	ldr	r3, [r7, #4]
 8003a2a:	2202      	movs	r2, #2
 8003a2c:	745a      	strb	r2, [r3, #17]
 8003a2e:	6878      	ldr	r0, [r7, #4]
 8003a30:	f000 f9c8 	bl	8003dc4 <HAL_RTC_WaitForSynchro>
 8003a34:	4603      	mov	r3, r0
 8003a36:	2b00      	cmp	r3, #0
 8003a38:	d004      	beq.n	8003a44 <HAL_RTC_Init+0x48>
 8003a3a:	687b      	ldr	r3, [r7, #4]
 8003a3c:	2204      	movs	r2, #4
 8003a3e:	745a      	strb	r2, [r3, #17]
 8003a40:	2301      	movs	r3, #1
 8003a42:	e06b      	b.n	8003b1c <HAL_RTC_Init+0x120>
 8003a44:	6878      	ldr	r0, [r7, #4]
 8003a46:	f000 fa81 	bl	8003f4c <RTC_EnterInitMode>
 8003a4a:	4603      	mov	r3, r0
 8003a4c:	2b00      	cmp	r3, #0
 8003a4e:	d004      	beq.n	8003a5a <HAL_RTC_Init+0x5e>
 8003a50:	687b      	ldr	r3, [r7, #4]
 8003a52:	2204      	movs	r2, #4
 8003a54:	745a      	strb	r2, [r3, #17]
 8003a56:	2301      	movs	r3, #1
 8003a58:	e060      	b.n	8003b1c <HAL_RTC_Init+0x120>
 8003a5a:	687b      	ldr	r3, [r7, #4]
 8003a5c:	681b      	ldr	r3, [r3, #0]
 8003a5e:	685a      	ldr	r2, [r3, #4]
 8003a60:	687b      	ldr	r3, [r7, #4]
 8003a62:	681b      	ldr	r3, [r3, #0]
 8003a64:	f022 0207 	bic.w	r2, r2, #7
 8003a68:	605a      	str	r2, [r3, #4]
 8003a6a:	687b      	ldr	r3, [r7, #4]
 8003a6c:	689b      	ldr	r3, [r3, #8]
 8003a6e:	2b00      	cmp	r3, #0
 8003a70:	d005      	beq.n	8003a7e <HAL_RTC_Init+0x82>
 8003a72:	4b2c      	ldr	r3, [pc, #176]	; (8003b24 <HAL_RTC_Init+0x128>)
 8003a74:	6b1b      	ldr	r3, [r3, #48]	; 0x30
 8003a76:	4a2b      	ldr	r2, [pc, #172]	; (8003b24 <HAL_RTC_Init+0x128>)
 8003a78:	f023 0301 	bic.w	r3, r3, #1
 8003a7c:	6313      	str	r3, [r2, #48]	; 0x30
 8003a7e:	4b29      	ldr	r3, [pc, #164]	; (8003b24 <HAL_RTC_Init+0x128>)
 8003a80:	6adb      	ldr	r3, [r3, #44]	; 0x2c
 8003a82:	f423 7260 	bic.w	r2, r3, #896	; 0x380
 8003a86:	687b      	ldr	r3, [r7, #4]
 8003a88:	689b      	ldr	r3, [r3, #8]
 8003a8a:	4926      	ldr	r1, [pc, #152]	; (8003b24 <HAL_RTC_Init+0x128>)
 8003a8c:	4313      	orrs	r3, r2
 8003a8e:	62cb      	str	r3, [r1, #44]	; 0x2c
 8003a90:	687b      	ldr	r3, [r7, #4]
 8003a92:	685b      	ldr	r3, [r3, #4]
 8003a94:	f1b3 3fff 	cmp.w	r3, #4294967295
 8003a98:	d003      	beq.n	8003aa2 <HAL_RTC_Init+0xa6>
 8003a9a:	687b      	ldr	r3, [r7, #4]
 8003a9c:	685b      	ldr	r3, [r3, #4]
 8003a9e:	60fb      	str	r3, [r7, #12]
 8003aa0:	e00e      	b.n	8003ac0 <HAL_RTC_Init+0xc4>
 8003aa2:	2001      	movs	r0, #1
 8003aa4:	f7ff feea 	bl	800387c <HAL_RCCEx_GetPeriphCLKFreq>
 8003aa8:	60f8      	str	r0, [r7, #12]
 8003aaa:	68fb      	ldr	r3, [r7, #12]
 8003aac:	2b00      	cmp	r3, #0
 8003aae:	d104      	bne.n	8003aba <HAL_RTC_Init+0xbe>
 8003ab0:	687b      	ldr	r3, [r7, #4]
 8003ab2:	2204      	movs	r2, #4
 8003ab4:	745a      	strb	r2, [r3, #17]
 8003ab6:	2301      	movs	r3, #1
 8003ab8:	e030      	b.n	8003b1c <HAL_RTC_Init+0x120>
 8003aba:	68fb      	ldr	r3, [r7, #12]
 8003abc:	3b01      	subs	r3, #1
 8003abe:	60fb      	str	r3, [r7, #12]
 8003ac0:	687b      	ldr	r3, [r7, #4]
 8003ac2:	681b      	ldr	r3, [r3, #0]
 8003ac4:	689b      	ldr	r3, [r3, #8]
 8003ac6:	f023 010f 	bic.w	r1, r3, #15
 8003aca:	68fb      	ldr	r3, [r7, #12]
 8003acc:	0c1a      	lsrs	r2, r3, #16
 8003ace:	687b      	ldr	r3, [r7, #4]
 8003ad0:	681b      	ldr	r3, [r3, #0]
 8003ad2:	430a      	orrs	r2, r1
 8003ad4:	609a      	str	r2, [r3, #8]
 8003ad6:	687b      	ldr	r3, [r7, #4]
 8003ad8:	681b      	ldr	r3, [r3, #0]
 8003ada:	68db      	ldr	r3, [r3, #12]
 8003adc:	0c1b      	lsrs	r3, r3, #16
 8003ade:	041b      	lsls	r3, r3, #16
 8003ae0:	68fa      	ldr	r2, [r7, #12]
 8003ae2:	b291      	uxth	r1, r2
 8003ae4:	687a      	ldr	r2, [r7, #4]
 8003ae6:	6812      	ldr	r2, [r2, #0]
 8003ae8:	430b      	orrs	r3, r1
 8003aea:	60d3      	str	r3, [r2, #12]
 8003aec:	6878      	ldr	r0, [r7, #4]
 8003aee:	f000 fa55 	bl	8003f9c <RTC_ExitInitMode>
 8003af2:	4603      	mov	r3, r0
 8003af4:	2b00      	cmp	r3, #0
 8003af6:	d004      	beq.n	8003b02 <HAL_RTC_Init+0x106>
 8003af8:	687b      	ldr	r3, [r7, #4]
 8003afa:	2204      	movs	r2, #4
 8003afc:	745a      	strb	r2, [r3, #17]
 8003afe:	2301      	movs	r3, #1
 8003b00:	e00c      	b.n	8003b1c <HAL_RTC_Init+0x120>
 8003b02:	687b      	ldr	r3, [r7, #4]
 8003b04:	2200      	movs	r2, #0
 8003b06:	73da      	strb	r2, [r3, #15]
 8003b08:	687b      	ldr	r3, [r7, #4]
 8003b0a:	2201      	movs	r2, #1
 8003b0c:	735a      	strb	r2, [r3, #13]
 8003b0e:	687b      	ldr	r3, [r7, #4]
 8003b10:	2201      	movs	r2, #1
 8003b12:	739a      	strb	r2, [r3, #14]
 8003b14:	687b      	ldr	r3, [r7, #4]
 8003b16:	2201      	movs	r2, #1
 8003b18:	745a      	strb	r2, [r3, #17]
 8003b1a:	2300      	movs	r3, #0
 8003b1c:	4618      	mov	r0, r3
 8003b1e:	3710      	adds	r7, #16
 8003b20:	46bd      	mov	sp, r7
 8003b22:	bd80      	pop	{r7, pc}
 8003b24:	40006c00 	.word	0x40006c00

08003b28 <HAL_RTC_SetTime>:
 8003b28:	b590      	push	{r4, r7, lr}
 8003b2a:	b087      	sub	sp, #28
 8003b2c:	af00      	add	r7, sp, #0
 8003b2e:	60f8      	str	r0, [r7, #12]
 8003b30:	60b9      	str	r1, [r7, #8]
 8003b32:	607a      	str	r2, [r7, #4]
 8003b34:	2300      	movs	r3, #0
 8003b36:	617b      	str	r3, [r7, #20]
 8003b38:	2300      	movs	r3, #0
 8003b3a:	613b      	str	r3, [r7, #16]
 8003b3c:	68fb      	ldr	r3, [r7, #12]
 8003b3e:	2b00      	cmp	r3, #0
 8003b40:	d002      	beq.n	8003b48 <HAL_RTC_SetTime+0x20>
 8003b42:	68bb      	ldr	r3, [r7, #8]
 8003b44:	2b00      	cmp	r3, #0
 8003b46:	d101      	bne.n	8003b4c <HAL_RTC_SetTime+0x24>
 8003b48:	2301      	movs	r3, #1
 8003b4a:	e080      	b.n	8003c4e <HAL_RTC_SetTime+0x126>
 8003b4c:	68fb      	ldr	r3, [r7, #12]
 8003b4e:	7c1b      	ldrb	r3, [r3, #16]
 8003b50:	2b01      	cmp	r3, #1
 8003b52:	d101      	bne.n	8003b58 <HAL_RTC_SetTime+0x30>
 8003b54:	2302      	movs	r3, #2
 8003b56:	e07a      	b.n	8003c4e <HAL_RTC_SetTime+0x126>
 8003b58:	68fb      	ldr	r3, [r7, #12]
 8003b5a:	2201      	movs	r2, #1
 8003b5c:	741a      	strb	r2, [r3, #16]
 8003b5e:	68fb      	ldr	r3, [r7, #12]
 8003b60:	2202      	movs	r2, #2
 8003b62:	745a      	strb	r2, [r3, #17]
 8003b64:	687b      	ldr	r3, [r7, #4]
 8003b66:	2b00      	cmp	r3, #0
 8003b68:	d113      	bne.n	8003b92 <HAL_RTC_SetTime+0x6a>
 8003b6a:	68bb      	ldr	r3, [r7, #8]
 8003b6c:	781b      	ldrb	r3, [r3, #0]
 8003b6e:	461a      	mov	r2, r3
 8003b70:	f44f 6361 	mov.w	r3, #3600	; 0xe10
 8003b74:	fb03 f202 	mul.w	r2, r3, r2
 8003b78:	68bb      	ldr	r3, [r7, #8]
 8003b7a:	785b      	ldrb	r3, [r3, #1]
 8003b7c:	4619      	mov	r1, r3
 8003b7e:	460b      	mov	r3, r1
 8003b80:	011b      	lsls	r3, r3, #4
 8003b82:	1a5b      	subs	r3, r3, r1
 8003b84:	009b      	lsls	r3, r3, #2
 8003b86:	4413      	add	r3, r2
 8003b88:	68ba      	ldr	r2, [r7, #8]
 8003b8a:	7892      	ldrb	r2, [r2, #2]
 8003b8c:	4413      	add	r3, r2
 8003b8e:	617b      	str	r3, [r7, #20]
 8003b90:	e01e      	b.n	8003bd0 <HAL_RTC_SetTime+0xa8>
 8003b92:	68bb      	ldr	r3, [r7, #8]
 8003b94:	781b      	ldrb	r3, [r3, #0]
 8003b96:	4618      	mov	r0, r3
 8003b98:	f000 fa28 	bl	8003fec <RTC_Bcd2ToByte>
 8003b9c:	4603      	mov	r3, r0
 8003b9e:	461a      	mov	r2, r3
 8003ba0:	f44f 6361 	mov.w	r3, #3600	; 0xe10
 8003ba4:	fb03 f402 	mul.w	r4, r3, r2
 8003ba8:	68bb      	ldr	r3, [r7, #8]
 8003baa:	785b      	ldrb	r3, [r3, #1]
 8003bac:	4618      	mov	r0, r3
 8003bae:	f000 fa1d 	bl	8003fec <RTC_Bcd2ToByte>
 8003bb2:	4603      	mov	r3, r0
 8003bb4:	461a      	mov	r2, r3
 8003bb6:	4613      	mov	r3, r2
 8003bb8:	011b      	lsls	r3, r3, #4
 8003bba:	1a9b      	subs	r3, r3, r2
 8003bbc:	009b      	lsls	r3, r3, #2
 8003bbe:	441c      	add	r4, r3
 8003bc0:	68bb      	ldr	r3, [r7, #8]
 8003bc2:	789b      	ldrb	r3, [r3, #2]
 8003bc4:	4618      	mov	r0, r3
 8003bc6:	f000 fa11 	bl	8003fec <RTC_Bcd2ToByte>
 8003bca:	4603      	mov	r3, r0
 8003bcc:	4423      	add	r3, r4
 8003bce:	617b      	str	r3, [r7, #20]
 8003bd0:	6979      	ldr	r1, [r7, #20]
 8003bd2:	68f8      	ldr	r0, [r7, #12]
 8003bd4:	f000 f953 	bl	8003e7e <RTC_WriteTimeCounter>
 8003bd8:	4603      	mov	r3, r0
 8003bda:	2b00      	cmp	r3, #0
 8003bdc:	d007      	beq.n	8003bee <HAL_RTC_SetTime+0xc6>
 8003bde:	68fb      	ldr	r3, [r7, #12]
 8003be0:	2204      	movs	r2, #4
 8003be2:	745a      	strb	r2, [r3, #17]
 8003be4:	68fb      	ldr	r3, [r7, #12]
 8003be6:	2200      	movs	r2, #0
 8003be8:	741a      	strb	r2, [r3, #16]
 8003bea:	2301      	movs	r3, #1
 8003bec:	e02f      	b.n	8003c4e <HAL_RTC_SetTime+0x126>
 8003bee:	68fb      	ldr	r3, [r7, #12]
 8003bf0:	681b      	ldr	r3, [r3, #0]
 8003bf2:	685a      	ldr	r2, [r3, #4]
 8003bf4:	68fb      	ldr	r3, [r7, #12]
 8003bf6:	681b      	ldr	r3, [r3, #0]
 8003bf8:	f022 0205 	bic.w	r2, r2, #5
 8003bfc:	605a      	str	r2, [r3, #4]
 8003bfe:	68f8      	ldr	r0, [r7, #12]
 8003c00:	f000 f964 	bl	8003ecc <RTC_ReadAlarmCounter>
 8003c04:	6138      	str	r0, [r7, #16]
 8003c06:	693b      	ldr	r3, [r7, #16]
 8003c08:	f1b3 3fff 	cmp.w	r3, #4294967295
 8003c0c:	d018      	beq.n	8003c40 <HAL_RTC_SetTime+0x118>
 8003c0e:	693a      	ldr	r2, [r7, #16]
 8003c10:	697b      	ldr	r3, [r7, #20]
 8003c12:	429a      	cmp	r2, r3
 8003c14:	d214      	bcs.n	8003c40 <HAL_RTC_SetTime+0x118>
 8003c16:	693b      	ldr	r3, [r7, #16]
 8003c18:	f503 33a8 	add.w	r3, r3, #86016	; 0x15000
 8003c1c:	f503 73c0 	add.w	r3, r3, #384	; 0x180
 8003c20:	613b      	str	r3, [r7, #16]
 8003c22:	6939      	ldr	r1, [r7, #16]
 8003c24:	68f8      	ldr	r0, [r7, #12]
 8003c26:	f000 f96a 	bl	8003efe <RTC_WriteAlarmCounter>
 8003c2a:	4603      	mov	r3, r0
 8003c2c:	2b00      	cmp	r3, #0
 8003c2e:	d007      	beq.n	8003c40 <HAL_RTC_SetTime+0x118>
 8003c30:	68fb      	ldr	r3, [r7, #12]
 8003c32:	2204      	movs	r2, #4
 8003c34:	745a      	strb	r2, [r3, #17]
 8003c36:	68fb      	ldr	r3, [r7, #12]
 8003c38:	2200      	movs	r2, #0
 8003c3a:	741a      	strb	r2, [r3, #16]
 8003c3c:	2301      	movs	r3, #1
 8003c3e:	e006      	b.n	8003c4e <HAL_RTC_SetTime+0x126>
 8003c40:	68fb      	ldr	r3, [r7, #12]
 8003c42:	2201      	movs	r2, #1
 8003c44:	745a      	strb	r2, [r3, #17]
 8003c46:	68fb      	ldr	r3, [r7, #12]
 8003c48:	2200      	movs	r2, #0
 8003c4a:	741a      	strb	r2, [r3, #16]
 8003c4c:	2300      	movs	r3, #0
 8003c4e:	4618      	mov	r0, r3
 8003c50:	371c      	adds	r7, #28
 8003c52:	46bd      	mov	sp, r7
 8003c54:	bd90      	pop	{r4, r7, pc}
	...

08003c58 <HAL_RTC_SetDate>:
 8003c58:	b580      	push	{r7, lr}
 8003c5a:	b088      	sub	sp, #32
 8003c5c:	af00      	add	r7, sp, #0
 8003c5e:	60f8      	str	r0, [r7, #12]
 8003c60:	60b9      	str	r1, [r7, #8]
 8003c62:	607a      	str	r2, [r7, #4]
 8003c64:	2300      	movs	r3, #0
 8003c66:	61fb      	str	r3, [r7, #28]
 8003c68:	2300      	movs	r3, #0
 8003c6a:	61bb      	str	r3, [r7, #24]
 8003c6c:	2300      	movs	r3, #0
 8003c6e:	617b      	str	r3, [r7, #20]
 8003c70:	68fb      	ldr	r3, [r7, #12]
 8003c72:	2b00      	cmp	r3, #0
 8003c74:	d002      	beq.n	8003c7c <HAL_RTC_SetDate+0x24>
 8003c76:	68bb      	ldr	r3, [r7, #8]
 8003c78:	2b00      	cmp	r3, #0
 8003c7a:	d101      	bne.n	8003c80 <HAL_RTC_SetDate+0x28>
 8003c7c:	2301      	movs	r3, #1
 8003c7e:	e097      	b.n	8003db0 <HAL_RTC_SetDate+0x158>
 8003c80:	68fb      	ldr	r3, [r7, #12]
 8003c82:	7c1b      	ldrb	r3, [r3, #16]
 8003c84:	2b01      	cmp	r3, #1
 8003c86:	d101      	bne.n	8003c8c <HAL_RTC_SetDate+0x34>
 8003c88:	2302      	movs	r3, #2
 8003c8a:	e091      	b.n	8003db0 <HAL_RTC_SetDate+0x158>
 8003c8c:	68fb      	ldr	r3, [r7, #12]
 8003c8e:	2201      	movs	r2, #1
 8003c90:	741a      	strb	r2, [r3, #16]
 8003c92:	68fb      	ldr	r3, [r7, #12]
 8003c94:	2202      	movs	r2, #2
 8003c96:	745a      	strb	r2, [r3, #17]
 8003c98:	687b      	ldr	r3, [r7, #4]
 8003c9a:	2b00      	cmp	r3, #0
 8003c9c:	d10c      	bne.n	8003cb8 <HAL_RTC_SetDate+0x60>
 8003c9e:	68bb      	ldr	r3, [r7, #8]
 8003ca0:	78da      	ldrb	r2, [r3, #3]
 8003ca2:	68fb      	ldr	r3, [r7, #12]
 8003ca4:	73da      	strb	r2, [r3, #15]
 8003ca6:	68bb      	ldr	r3, [r7, #8]
 8003ca8:	785a      	ldrb	r2, [r3, #1]
 8003caa:	68fb      	ldr	r3, [r7, #12]
 8003cac:	735a      	strb	r2, [r3, #13]
 8003cae:	68bb      	ldr	r3, [r7, #8]
 8003cb0:	789a      	ldrb	r2, [r3, #2]
 8003cb2:	68fb      	ldr	r3, [r7, #12]
 8003cb4:	739a      	strb	r2, [r3, #14]
 8003cb6:	e01a      	b.n	8003cee <HAL_RTC_SetDate+0x96>
 8003cb8:	68bb      	ldr	r3, [r7, #8]
 8003cba:	78db      	ldrb	r3, [r3, #3]
 8003cbc:	4618      	mov	r0, r3
 8003cbe:	f000 f995 	bl	8003fec <RTC_Bcd2ToByte>
 8003cc2:	4603      	mov	r3, r0
 8003cc4:	461a      	mov	r2, r3
 8003cc6:	68fb      	ldr	r3, [r7, #12]
 8003cc8:	73da      	strb	r2, [r3, #15]
 8003cca:	68bb      	ldr	r3, [r7, #8]
 8003ccc:	785b      	ldrb	r3, [r3, #1]
 8003cce:	4618      	mov	r0, r3
 8003cd0:	f000 f98c 	bl	8003fec <RTC_Bcd2ToByte>
 8003cd4:	4603      	mov	r3, r0
 8003cd6:	461a      	mov	r2, r3
 8003cd8:	68fb      	ldr	r3, [r7, #12]
 8003cda:	735a      	strb	r2, [r3, #13]
 8003cdc:	68bb      	ldr	r3, [r7, #8]
 8003cde:	789b      	ldrb	r3, [r3, #2]
 8003ce0:	4618      	mov	r0, r3
 8003ce2:	f000 f983 	bl	8003fec <RTC_Bcd2ToByte>
 8003ce6:	4603      	mov	r3, r0
 8003ce8:	461a      	mov	r2, r3
 8003cea:	68fb      	ldr	r3, [r7, #12]
 8003cec:	739a      	strb	r2, [r3, #14]
 8003cee:	68fb      	ldr	r3, [r7, #12]
 8003cf0:	7bdb      	ldrb	r3, [r3, #15]
 8003cf2:	4618      	mov	r0, r3
 8003cf4:	68fb      	ldr	r3, [r7, #12]
 8003cf6:	7b59      	ldrb	r1, [r3, #13]
 8003cf8:	68fb      	ldr	r3, [r7, #12]
 8003cfa:	7b9b      	ldrb	r3, [r3, #14]
 8003cfc:	461a      	mov	r2, r3
 8003cfe:	f000 f993 	bl	8004028 <RTC_WeekDayNum>
 8003d02:	4603      	mov	r3, r0
 8003d04:	461a      	mov	r2, r3
 8003d06:	68fb      	ldr	r3, [r7, #12]
 8003d08:	731a      	strb	r2, [r3, #12]
 8003d0a:	68fb      	ldr	r3, [r7, #12]
 8003d0c:	7b1a      	ldrb	r2, [r3, #12]
 8003d0e:	68bb      	ldr	r3, [r7, #8]
 8003d10:	701a      	strb	r2, [r3, #0]
 8003d12:	68f8      	ldr	r0, [r7, #12]
 8003d14:	f000 f883 	bl	8003e1e <RTC_ReadTimeCounter>
 8003d18:	61f8      	str	r0, [r7, #28]
 8003d1a:	69fb      	ldr	r3, [r7, #28]
 8003d1c:	4a26      	ldr	r2, [pc, #152]	; (8003db8 <HAL_RTC_SetDate+0x160>)
 8003d1e:	fba2 2303 	umull	r2, r3, r2, r3
 8003d22:	0adb      	lsrs	r3, r3, #11
 8003d24:	617b      	str	r3, [r7, #20]
 8003d26:	697b      	ldr	r3, [r7, #20]
 8003d28:	2b18      	cmp	r3, #24
 8003d2a:	d93a      	bls.n	8003da2 <HAL_RTC_SetDate+0x14a>
 8003d2c:	697b      	ldr	r3, [r7, #20]
 8003d2e:	4a23      	ldr	r2, [pc, #140]	; (8003dbc <HAL_RTC_SetDate+0x164>)
 8003d30:	fba2 2303 	umull	r2, r3, r2, r3
 8003d34:	091b      	lsrs	r3, r3, #4
 8003d36:	4a22      	ldr	r2, [pc, #136]	; (8003dc0 <HAL_RTC_SetDate+0x168>)
 8003d38:	fb02 f303 	mul.w	r3, r2, r3
 8003d3c:	69fa      	ldr	r2, [r7, #28]
 8003d3e:	1ad3      	subs	r3, r2, r3
 8003d40:	61fb      	str	r3, [r7, #28]
 8003d42:	69f9      	ldr	r1, [r7, #28]
 8003d44:	68f8      	ldr	r0, [r7, #12]
 8003d46:	f000 f89a 	bl	8003e7e <RTC_WriteTimeCounter>
 8003d4a:	4603      	mov	r3, r0
 8003d4c:	2b00      	cmp	r3, #0
 8003d4e:	d007      	beq.n	8003d60 <HAL_RTC_SetDate+0x108>
 8003d50:	68fb      	ldr	r3, [r7, #12]
 8003d52:	2204      	movs	r2, #4
 8003d54:	745a      	strb	r2, [r3, #17]
 8003d56:	68fb      	ldr	r3, [r7, #12]
 8003d58:	2200      	movs	r2, #0
 8003d5a:	741a      	strb	r2, [r3, #16]
 8003d5c:	2301      	movs	r3, #1
 8003d5e:	e027      	b.n	8003db0 <HAL_RTC_SetDate+0x158>
 8003d60:	68f8      	ldr	r0, [r7, #12]
 8003d62:	f000 f8b3 	bl	8003ecc <RTC_ReadAlarmCounter>
 8003d66:	61b8      	str	r0, [r7, #24]
 8003d68:	69bb      	ldr	r3, [r7, #24]
 8003d6a:	f1b3 3fff 	cmp.w	r3, #4294967295
 8003d6e:	d018      	beq.n	8003da2 <HAL_RTC_SetDate+0x14a>
 8003d70:	69ba      	ldr	r2, [r7, #24]
 8003d72:	69fb      	ldr	r3, [r7, #28]
 8003d74:	429a      	cmp	r2, r3
 8003d76:	d214      	bcs.n	8003da2 <HAL_RTC_SetDate+0x14a>
 8003d78:	69bb      	ldr	r3, [r7, #24]
 8003d7a:	f503 33a8 	add.w	r3, r3, #86016	; 0x15000
 8003d7e:	f503 73c0 	add.w	r3, r3, #384	; 0x180
 8003d82:	61bb      	str	r3, [r7, #24]
 8003d84:	69b9      	ldr	r1, [r7, #24]
 8003d86:	68f8      	ldr	r0, [r7, #12]
 8003d88:	f000 f8b9 	bl	8003efe <RTC_WriteAlarmCounter>
 8003d8c:	4603      	mov	r3, r0
 8003d8e:	2b00      	cmp	r3, #0
 8003d90:	d007      	beq.n	8003da2 <HAL_RTC_SetDate+0x14a>
 8003d92:	68fb      	ldr	r3, [r7, #12]
 8003d94:	2204      	movs	r2, #4
 8003d96:	745a      	strb	r2, [r3, #17]
 8003d98:	68fb      	ldr	r3, [r7, #12]
 8003d9a:	2200      	movs	r2, #0
 8003d9c:	741a      	strb	r2, [r3, #16]
 8003d9e:	2301      	movs	r3, #1
 8003da0:	e006      	b.n	8003db0 <HAL_RTC_SetDate+0x158>
 8003da2:	68fb      	ldr	r3, [r7, #12]
 8003da4:	2201      	movs	r2, #1
 8003da6:	745a      	strb	r2, [r3, #17]
 8003da8:	68fb      	ldr	r3, [r7, #12]
 8003daa:	2200      	movs	r2, #0
 8003dac:	741a      	strb	r2, [r3, #16]
 8003dae:	2300      	movs	r3, #0
 8003db0:	4618      	mov	r0, r3
 8003db2:	3720      	adds	r7, #32
 8003db4:	46bd      	mov	sp, r7
 8003db6:	bd80      	pop	{r7, pc}
 8003db8:	91a2b3c5 	.word	0x91a2b3c5
 8003dbc:	aaaaaaab 	.word	0xaaaaaaab
 8003dc0:	00015180 	.word	0x00015180

08003dc4 <HAL_RTC_WaitForSynchro>:
 8003dc4:	b580      	push	{r7, lr}
 8003dc6:	b084      	sub	sp, #16
 8003dc8:	af00      	add	r7, sp, #0
 8003dca:	6078      	str	r0, [r7, #4]
 8003dcc:	2300      	movs	r3, #0
 8003dce:	60fb      	str	r3, [r7, #12]
 8003dd0:	687b      	ldr	r3, [r7, #4]
 8003dd2:	2b00      	cmp	r3, #0
 8003dd4:	d101      	bne.n	8003dda <HAL_RTC_WaitForSynchro+0x16>
 8003dd6:	2301      	movs	r3, #1
 8003dd8:	e01d      	b.n	8003e16 <HAL_RTC_WaitForSynchro+0x52>
 8003dda:	687b      	ldr	r3, [r7, #4]
 8003ddc:	681b      	ldr	r3, [r3, #0]
 8003dde:	685a      	ldr	r2, [r3, #4]
 8003de0:	687b      	ldr	r3, [r7, #4]
 8003de2:	681b      	ldr	r3, [r3, #0]
 8003de4:	f022 0208 	bic.w	r2, r2, #8
 8003de8:	605a      	str	r2, [r3, #4]
 8003dea:	f7fe f931 	bl	8002050 <HAL_GetTick>
 8003dee:	60f8      	str	r0, [r7, #12]
 8003df0:	e009      	b.n	8003e06 <HAL_RTC_WaitForSynchro+0x42>
 8003df2:	f7fe f92d 	bl	8002050 <HAL_GetTick>
 8003df6:	4602      	mov	r2, r0
 8003df8:	68fb      	ldr	r3, [r7, #12]
 8003dfa:	1ad3      	subs	r3, r2, r3
 8003dfc:	f5b3 7f7a 	cmp.w	r3, #1000	; 0x3e8
 8003e00:	d901      	bls.n	8003e06 <HAL_RTC_WaitForSynchro+0x42>
 8003e02:	2303      	movs	r3, #3
 8003e04:	e007      	b.n	8003e16 <HAL_RTC_WaitForSynchro+0x52>
 8003e06:	687b      	ldr	r3, [r7, #4]
 8003e08:	681b      	ldr	r3, [r3, #0]
 8003e0a:	685b      	ldr	r3, [r3, #4]
 8003e0c:	f003 0308 	and.w	r3, r3, #8
 8003e10:	2b00      	cmp	r3, #0
 8003e12:	d0ee      	beq.n	8003df2 <HAL_RTC_WaitForSynchro+0x2e>
 8003e14:	2300      	movs	r3, #0
 8003e16:	4618      	mov	r0, r3
 8003e18:	3710      	adds	r7, #16
 8003e1a:	46bd      	mov	sp, r7
 8003e1c:	bd80      	pop	{r7, pc}

08003e1e <RTC_ReadTimeCounter>:
 8003e1e:	b480      	push	{r7}
 8003e20:	b087      	sub	sp, #28
 8003e22:	af00      	add	r7, sp, #0
 8003e24:	6078      	str	r0, [r7, #4]
 8003e26:	2300      	movs	r3, #0
 8003e28:	827b      	strh	r3, [r7, #18]
 8003e2a:	2300      	movs	r3, #0
 8003e2c:	823b      	strh	r3, [r7, #16]
 8003e2e:	2300      	movs	r3, #0
 8003e30:	81fb      	strh	r3, [r7, #14]
 8003e32:	2300      	movs	r3, #0
 8003e34:	617b      	str	r3, [r7, #20]
 8003e36:	687b      	ldr	r3, [r7, #4]
 8003e38:	681b      	ldr	r3, [r3, #0]
 8003e3a:	699b      	ldr	r3, [r3, #24]
 8003e3c:	827b      	strh	r3, [r7, #18]
 8003e3e:	687b      	ldr	r3, [r7, #4]
 8003e40:	681b      	ldr	r3, [r3, #0]
 8003e42:	69db      	ldr	r3, [r3, #28]
 8003e44:	81fb      	strh	r3, [r7, #14]
 8003e46:	687b      	ldr	r3, [r7, #4]
 8003e48:	681b      	ldr	r3, [r3, #0]
 8003e4a:	699b      	ldr	r3, [r3, #24]
 8003e4c:	823b      	strh	r3, [r7, #16]
 8003e4e:	8a7a      	ldrh	r2, [r7, #18]
 8003e50:	8a3b      	ldrh	r3, [r7, #16]
 8003e52:	429a      	cmp	r2, r3
 8003e54:	d008      	beq.n	8003e68 <RTC_ReadTimeCounter+0x4a>
 8003e56:	8a3b      	ldrh	r3, [r7, #16]
 8003e58:	041a      	lsls	r2, r3, #16
 8003e5a:	687b      	ldr	r3, [r7, #4]
 8003e5c:	681b      	ldr	r3, [r3, #0]
 8003e5e:	69db      	ldr	r3, [r3, #28]
 8003e60:	b29b      	uxth	r3, r3
 8003e62:	4313      	orrs	r3, r2
 8003e64:	617b      	str	r3, [r7, #20]
 8003e66:	e004      	b.n	8003e72 <RTC_ReadTimeCounter+0x54>
 8003e68:	8a7b      	ldrh	r3, [r7, #18]
 8003e6a:	041a      	lsls	r2, r3, #16
 8003e6c:	89fb      	ldrh	r3, [r7, #14]
 8003e6e:	4313      	orrs	r3, r2
 8003e70:	617b      	str	r3, [r7, #20]
 8003e72:	697b      	ldr	r3, [r7, #20]
 8003e74:	4618      	mov	r0, r3
 8003e76:	371c      	adds	r7, #28
 8003e78:	46bd      	mov	sp, r7
 8003e7a:	bc80      	pop	{r7}
 8003e7c:	4770      	bx	lr

08003e7e <RTC_WriteTimeCounter>:
 8003e7e:	b580      	push	{r7, lr}
 8003e80:	b084      	sub	sp, #16
 8003e82:	af00      	add	r7, sp, #0
 8003e84:	6078      	str	r0, [r7, #4]
 8003e86:	6039      	str	r1, [r7, #0]
 8003e88:	2300      	movs	r3, #0
 8003e8a:	73fb      	strb	r3, [r7, #15]
 8003e8c:	6878      	ldr	r0, [r7, #4]
 8003e8e:	f000 f85d 	bl	8003f4c <RTC_EnterInitMode>
 8003e92:	4603      	mov	r3, r0
 8003e94:	2b00      	cmp	r3, #0
 8003e96:	d002      	beq.n	8003e9e <RTC_WriteTimeCounter+0x20>
 8003e98:	2301      	movs	r3, #1
 8003e9a:	73fb      	strb	r3, [r7, #15]
 8003e9c:	e011      	b.n	8003ec2 <RTC_WriteTimeCounter+0x44>
 8003e9e:	687b      	ldr	r3, [r7, #4]
 8003ea0:	681b      	ldr	r3, [r3, #0]
 8003ea2:	683a      	ldr	r2, [r7, #0]
 8003ea4:	0c12      	lsrs	r2, r2, #16
 8003ea6:	619a      	str	r2, [r3, #24]
 8003ea8:	687b      	ldr	r3, [r7, #4]
 8003eaa:	681b      	ldr	r3, [r3, #0]
 8003eac:	683a      	ldr	r2, [r7, #0]
 8003eae:	b292      	uxth	r2, r2
 8003eb0:	61da      	str	r2, [r3, #28]
 8003eb2:	6878      	ldr	r0, [r7, #4]
 8003eb4:	f000 f872 	bl	8003f9c <RTC_ExitInitMode>
 8003eb8:	4603      	mov	r3, r0
 8003eba:	2b00      	cmp	r3, #0
 8003ebc:	d001      	beq.n	8003ec2 <RTC_WriteTimeCounter+0x44>
 8003ebe:	2301      	movs	r3, #1
 8003ec0:	73fb      	strb	r3, [r7, #15]
 8003ec2:	7bfb      	ldrb	r3, [r7, #15]
 8003ec4:	4618      	mov	r0, r3
 8003ec6:	3710      	adds	r7, #16
 8003ec8:	46bd      	mov	sp, r7
 8003eca:	bd80      	pop	{r7, pc}

08003ecc <RTC_ReadAlarmCounter>:
 8003ecc:	b480      	push	{r7}
 8003ece:	b085      	sub	sp, #20
 8003ed0:	af00      	add	r7, sp, #0
 8003ed2:	6078      	str	r0, [r7, #4]
 8003ed4:	2300      	movs	r3, #0
 8003ed6:	81fb      	strh	r3, [r7, #14]
 8003ed8:	2300      	movs	r3, #0
 8003eda:	81bb      	strh	r3, [r7, #12]
 8003edc:	687b      	ldr	r3, [r7, #4]
 8003ede:	681b      	ldr	r3, [r3, #0]
 8003ee0:	6a1b      	ldr	r3, [r3, #32]
 8003ee2:	81fb      	strh	r3, [r7, #14]
 8003ee4:	687b      	ldr	r3, [r7, #4]
 8003ee6:	681b      	ldr	r3, [r3, #0]
 8003ee8:	6a5b      	ldr	r3, [r3, #36]	; 0x24
 8003eea:	81bb      	strh	r3, [r7, #12]
 8003eec:	89fb      	ldrh	r3, [r7, #14]
 8003eee:	041a      	lsls	r2, r3, #16
 8003ef0:	89bb      	ldrh	r3, [r7, #12]
 8003ef2:	4313      	orrs	r3, r2
 8003ef4:	4618      	mov	r0, r3
 8003ef6:	3714      	adds	r7, #20
 8003ef8:	46bd      	mov	sp, r7
 8003efa:	bc80      	pop	{r7}
 8003efc:	4770      	bx	lr

08003efe <RTC_WriteAlarmCounter>:
 8003efe:	b580      	push	{r7, lr}
 8003f00:	b084      	sub	sp, #16
 8003f02:	af00      	add	r7, sp, #0
 8003f04:	6078      	str	r0, [r7, #4]
 8003f06:	6039      	str	r1, [r7, #0]
 8003f08:	2300      	movs	r3, #0
 8003f0a:	73fb      	strb	r3, [r7, #15]
 8003f0c:	6878      	ldr	r0, [r7, #4]
 8003f0e:	f000 f81d 	bl	8003f4c <RTC_EnterInitMode>
 8003f12:	4603      	mov	r3, r0
 8003f14:	2b00      	cmp	r3, #0
 8003f16:	d002      	beq.n	8003f1e <RTC_WriteAlarmCounter+0x20>
 8003f18:	2301      	movs	r3, #1
 8003f1a:	73fb      	strb	r3, [r7, #15]
 8003f1c:	e011      	b.n	8003f42 <RTC_WriteAlarmCounter+0x44>
 8003f1e:	687b      	ldr	r3, [r7, #4]
 8003f20:	681b      	ldr	r3, [r3, #0]
 8003f22:	683a      	ldr	r2, [r7, #0]
 8003f24:	0c12      	lsrs	r2, r2, #16
 8003f26:	621a      	str	r2, [r3, #32]
 8003f28:	687b      	ldr	r3, [r7, #4]
 8003f2a:	681b      	ldr	r3, [r3, #0]
 8003f2c:	683a      	ldr	r2, [r7, #0]
 8003f2e:	b292      	uxth	r2, r2
 8003f30:	625a      	str	r2, [r3, #36]	; 0x24
 8003f32:	6878      	ldr	r0, [r7, #4]
 8003f34:	f000 f832 	bl	8003f9c <RTC_ExitInitMode>
 8003f38:	4603      	mov	r3, r0
 8003f3a:	2b00      	cmp	r3, #0
 8003f3c:	d001      	beq.n	8003f42 <RTC_WriteAlarmCounter+0x44>
 8003f3e:	2301      	movs	r3, #1
 8003f40:	73fb      	strb	r3, [r7, #15]
 8003f42:	7bfb      	ldrb	r3, [r7, #15]
 8003f44:	4618      	mov	r0, r3
 8003f46:	3710      	adds	r7, #16
 8003f48:	46bd      	mov	sp, r7
 8003f4a:	bd80      	pop	{r7, pc}

08003f4c <RTC_EnterInitMode>:
 8003f4c:	b580      	push	{r7, lr}
 8003f4e:	b084      	sub	sp, #16
 8003f50:	af00      	add	r7, sp, #0
 8003f52:	6078      	str	r0, [r7, #4]
 8003f54:	2300      	movs	r3, #0
 8003f56:	60fb      	str	r3, [r7, #12]
 8003f58:	f7fe f87a 	bl	8002050 <HAL_GetTick>
 8003f5c:	60f8      	str	r0, [r7, #12]
 8003f5e:	e009      	b.n	8003f74 <RTC_EnterInitMode+0x28>
 8003f60:	f7fe f876 	bl	8002050 <HAL_GetTick>
 8003f64:	4602      	mov	r2, r0
 8003f66:	68fb      	ldr	r3, [r7, #12]
 8003f68:	1ad3      	subs	r3, r2, r3
 8003f6a:	f5b3 7f7a 	cmp.w	r3, #1000	; 0x3e8
 8003f6e:	d901      	bls.n	8003f74 <RTC_EnterInitMode+0x28>
 8003f70:	2303      	movs	r3, #3
 8003f72:	e00f      	b.n	8003f94 <RTC_EnterInitMode+0x48>
 8003f74:	687b      	ldr	r3, [r7, #4]
 8003f76:	681b      	ldr	r3, [r3, #0]
 8003f78:	685b      	ldr	r3, [r3, #4]
 8003f7a:	f003 0320 	and.w	r3, r3, #32
 8003f7e:	2b00      	cmp	r3, #0
 8003f80:	d0ee      	beq.n	8003f60 <RTC_EnterInitMode+0x14>
 8003f82:	687b      	ldr	r3, [r7, #4]
 8003f84:	681b      	ldr	r3, [r3, #0]
 8003f86:	685a      	ldr	r2, [r3, #4]
 8003f88:	687b      	ldr	r3, [r7, #4]
 8003f8a:	681b      	ldr	r3, [r3, #0]
 8003f8c:	f042 0210 	orr.w	r2, r2, #16
 8003f90:	605a      	str	r2, [r3, #4]
 8003f92:	2300      	movs	r3, #0
 8003f94:	4618      	mov	r0, r3
 8003f96:	3710      	adds	r7, #16
 8003f98:	46bd      	mov	sp, r7
 8003f9a:	bd80      	pop	{r7, pc}

08003f9c <RTC_ExitInitMode>:
 8003f9c:	b580      	push	{r7, lr}
 8003f9e:	b084      	sub	sp, #16
 8003fa0:	af00      	add	r7, sp, #0
 8003fa2:	6078      	str	r0, [r7, #4]
 8003fa4:	2300      	movs	r3, #0
 8003fa6:	60fb      	str	r3, [r7, #12]
 8003fa8:	687b      	ldr	r3, [r7, #4]
 8003faa:	681b      	ldr	r3, [r3, #0]
 8003fac:	685a      	ldr	r2, [r3, #4]
 8003fae:	687b      	ldr	r3, [r7, #4]
 8003fb0:	681b      	ldr	r3, [r3, #0]
 8003fb2:	f022 0210 	bic.w	r2, r2, #16
 8003fb6:	605a      	str	r2, [r3, #4]
 8003fb8:	f7fe f84a 	bl	8002050 <HAL_GetTick>
 8003fbc:	60f8      	str	r0, [r7, #12]
 8003fbe:	e009      	b.n	8003fd4 <RTC_ExitInitMode+0x38>
 8003fc0:	f7fe f846 	bl	8002050 <HAL_GetTick>
 8003fc4:	4602      	mov	r2, r0
 8003fc6:	68fb      	ldr	r3, [r7, #12]
 8003fc8:	1ad3      	subs	r3, r2, r3
 8003fca:	f5b3 7f7a 	cmp.w	r3, #1000	; 0x3e8
 8003fce:	d901      	bls.n	8003fd4 <RTC_ExitInitMode+0x38>
 8003fd0:	2303      	movs	r3, #3
 8003fd2:	e007      	b.n	8003fe4 <RTC_ExitInitMode+0x48>
 8003fd4:	687b      	ldr	r3, [r7, #4]
 8003fd6:	681b      	ldr	r3, [r3, #0]
 8003fd8:	685b      	ldr	r3, [r3, #4]
 8003fda:	f003 0320 	and.w	r3, r3, #32
 8003fde:	2b00      	cmp	r3, #0
 8003fe0:	d0ee      	beq.n	8003fc0 <RTC_ExitInitMode+0x24>
 8003fe2:	2300      	movs	r3, #0
 8003fe4:	4618      	mov	r0, r3
 8003fe6:	3710      	adds	r7, #16
 8003fe8:	46bd      	mov	sp, r7
 8003fea:	bd80      	pop	{r7, pc}

08003fec <RTC_Bcd2ToByte>:
 8003fec:	b480      	push	{r7}
 8003fee:	b085      	sub	sp, #20
 8003ff0:	af00      	add	r7, sp, #0
 8003ff2:	4603      	mov	r3, r0
 8003ff4:	71fb      	strb	r3, [r7, #7]
 8003ff6:	2300      	movs	r3, #0
 8003ff8:	60fb      	str	r3, [r7, #12]
 8003ffa:	79fb      	ldrb	r3, [r7, #7]
 8003ffc:	091b      	lsrs	r3, r3, #4
 8003ffe:	b2db      	uxtb	r3, r3
 8004000:	461a      	mov	r2, r3
 8004002:	4613      	mov	r3, r2
 8004004:	009b      	lsls	r3, r3, #2
 8004006:	4413      	add	r3, r2
 8004008:	005b      	lsls	r3, r3, #1
 800400a:	60fb      	str	r3, [r7, #12]
 800400c:	79fb      	ldrb	r3, [r7, #7]
 800400e:	f003 030f 	and.w	r3, r3, #15
 8004012:	b2da      	uxtb	r2, r3
 8004014:	68fb      	ldr	r3, [r7, #12]
 8004016:	b2db      	uxtb	r3, r3
 8004018:	4413      	add	r3, r2
 800401a:	b2db      	uxtb	r3, r3
 800401c:	4618      	mov	r0, r3
 800401e:	3714      	adds	r7, #20
 8004020:	46bd      	mov	sp, r7
 8004022:	bc80      	pop	{r7}
 8004024:	4770      	bx	lr
	...

08004028 <RTC_WeekDayNum>:
 8004028:	b480      	push	{r7}
 800402a:	b085      	sub	sp, #20
 800402c:	af00      	add	r7, sp, #0
 800402e:	6078      	str	r0, [r7, #4]
 8004030:	460b      	mov	r3, r1
 8004032:	70fb      	strb	r3, [r7, #3]
 8004034:	4613      	mov	r3, r2
 8004036:	70bb      	strb	r3, [r7, #2]
 8004038:	2300      	movs	r3, #0
 800403a:	60bb      	str	r3, [r7, #8]
 800403c:	2300      	movs	r3, #0
 800403e:	60fb      	str	r3, [r7, #12]
 8004040:	687b      	ldr	r3, [r7, #4]
 8004042:	f503 63fa 	add.w	r3, r3, #2000	; 0x7d0
 8004046:	60bb      	str	r3, [r7, #8]
 8004048:	78fb      	ldrb	r3, [r7, #3]
 800404a:	2b02      	cmp	r3, #2
 800404c:	d82d      	bhi.n	80040aa <RTC_WeekDayNum+0x82>
 800404e:	78fa      	ldrb	r2, [r7, #3]
 8004050:	4613      	mov	r3, r2
 8004052:	005b      	lsls	r3, r3, #1
 8004054:	4413      	add	r3, r2
 8004056:	00db      	lsls	r3, r3, #3
 8004058:	1a9b      	subs	r3, r3, r2
 800405a:	4a2c      	ldr	r2, [pc, #176]	; (800410c <RTC_WeekDayNum+0xe4>)
 800405c:	fba2 2303 	umull	r2, r3, r2, r3
 8004060:	085a      	lsrs	r2, r3, #1
 8004062:	78bb      	ldrb	r3, [r7, #2]
 8004064:	441a      	add	r2, r3
 8004066:	68bb      	ldr	r3, [r7, #8]
 8004068:	441a      	add	r2, r3
 800406a:	68bb      	ldr	r3, [r7, #8]
 800406c:	3b01      	subs	r3, #1
 800406e:	089b      	lsrs	r3, r3, #2
 8004070:	441a      	add	r2, r3
 8004072:	68bb      	ldr	r3, [r7, #8]
 8004074:	3b01      	subs	r3, #1
 8004076:	4926      	ldr	r1, [pc, #152]	; (8004110 <RTC_WeekDayNum+0xe8>)
 8004078:	fba1 1303 	umull	r1, r3, r1, r3
 800407c:	095b      	lsrs	r3, r3, #5
 800407e:	1ad2      	subs	r2, r2, r3
 8004080:	68bb      	ldr	r3, [r7, #8]
 8004082:	3b01      	subs	r3, #1
 8004084:	4922      	ldr	r1, [pc, #136]	; (8004110 <RTC_WeekDayNum+0xe8>)
 8004086:	fba1 1303 	umull	r1, r3, r1, r3
 800408a:	09db      	lsrs	r3, r3, #7
 800408c:	4413      	add	r3, r2
 800408e:	1d1a      	adds	r2, r3, #4
 8004090:	4b20      	ldr	r3, [pc, #128]	; (8004114 <RTC_WeekDayNum+0xec>)
 8004092:	fba3 1302 	umull	r1, r3, r3, r2
 8004096:	1ad1      	subs	r1, r2, r3
 8004098:	0849      	lsrs	r1, r1, #1
 800409a:	440b      	add	r3, r1
 800409c:	0899      	lsrs	r1, r3, #2
 800409e:	460b      	mov	r3, r1
 80040a0:	00db      	lsls	r3, r3, #3
 80040a2:	1a5b      	subs	r3, r3, r1
 80040a4:	1ad3      	subs	r3, r2, r3
 80040a6:	60fb      	str	r3, [r7, #12]
 80040a8:	e029      	b.n	80040fe <RTC_WeekDayNum+0xd6>
 80040aa:	78fa      	ldrb	r2, [r7, #3]
 80040ac:	4613      	mov	r3, r2
 80040ae:	005b      	lsls	r3, r3, #1
 80040b0:	4413      	add	r3, r2
 80040b2:	00db      	lsls	r3, r3, #3
 80040b4:	1a9b      	subs	r3, r3, r2
 80040b6:	4a15      	ldr	r2, [pc, #84]	; (800410c <RTC_WeekDayNum+0xe4>)
 80040b8:	fba2 2303 	umull	r2, r3, r2, r3
 80040bc:	085a      	lsrs	r2, r3, #1
 80040be:	78bb      	ldrb	r3, [r7, #2]
 80040c0:	441a      	add	r2, r3
 80040c2:	68bb      	ldr	r3, [r7, #8]
 80040c4:	441a      	add	r2, r3
 80040c6:	68bb      	ldr	r3, [r7, #8]
 80040c8:	089b      	lsrs	r3, r3, #2
 80040ca:	441a      	add	r2, r3
 80040cc:	68bb      	ldr	r3, [r7, #8]
 80040ce:	4910      	ldr	r1, [pc, #64]	; (8004110 <RTC_WeekDayNum+0xe8>)
 80040d0:	fba1 1303 	umull	r1, r3, r1, r3
 80040d4:	095b      	lsrs	r3, r3, #5
 80040d6:	1ad2      	subs	r2, r2, r3
 80040d8:	68bb      	ldr	r3, [r7, #8]
 80040da:	490d      	ldr	r1, [pc, #52]	; (8004110 <RTC_WeekDayNum+0xe8>)
 80040dc:	fba1 1303 	umull	r1, r3, r1, r3
 80040e0:	09db      	lsrs	r3, r3, #7
 80040e2:	4413      	add	r3, r2
 80040e4:	1c9a      	adds	r2, r3, #2
 80040e6:	4b0b      	ldr	r3, [pc, #44]	; (8004114 <RTC_WeekDayNum+0xec>)
 80040e8:	fba3 1302 	umull	r1, r3, r3, r2
 80040ec:	1ad1      	subs	r1, r2, r3
 80040ee:	0849      	lsrs	r1, r1, #1
 80040f0:	440b      	add	r3, r1
 80040f2:	0899      	lsrs	r1, r3, #2
 80040f4:	460b      	mov	r3, r1
 80040f6:	00db      	lsls	r3, r3, #3
 80040f8:	1a5b      	subs	r3, r3, r1
 80040fa:	1ad3      	subs	r3, r2, r3
 80040fc:	60fb      	str	r3, [r7, #12]
 80040fe:	68fb      	ldr	r3, [r7, #12]
 8004100:	b2db      	uxtb	r3, r3
 8004102:	4618      	mov	r0, r3
 8004104:	3714      	adds	r7, #20
 8004106:	46bd      	mov	sp, r7
 8004108:	bc80      	pop	{r7}
 800410a:	4770      	bx	lr
 800410c:	38e38e39 	.word	0x38e38e39
 8004110:	51eb851f 	.word	0x51eb851f
 8004114:	24924925 	.word	0x24924925

08004118 <HAL_RTCEx_RTCIRQHandler>:
 8004118:	b580      	push	{r7, lr}
 800411a:	b082      	sub	sp, #8
 800411c:	af00      	add	r7, sp, #0
 800411e:	6078      	str	r0, [r7, #4]
 8004120:	687b      	ldr	r3, [r7, #4]
 8004122:	681b      	ldr	r3, [r3, #0]
 8004124:	681b      	ldr	r3, [r3, #0]
 8004126:	f003 0301 	and.w	r3, r3, #1
 800412a:	2b00      	cmp	r3, #0
 800412c:	d027      	beq.n	800417e <HAL_RTCEx_RTCIRQHandler+0x66>
 800412e:	687b      	ldr	r3, [r7, #4]
 8004130:	681b      	ldr	r3, [r3, #0]
 8004132:	685b      	ldr	r3, [r3, #4]
 8004134:	f003 0301 	and.w	r3, r3, #1
 8004138:	2b00      	cmp	r3, #0
 800413a:	d020      	beq.n	800417e <HAL_RTCEx_RTCIRQHandler+0x66>
 800413c:	687b      	ldr	r3, [r7, #4]
 800413e:	681b      	ldr	r3, [r3, #0]
 8004140:	685b      	ldr	r3, [r3, #4]
 8004142:	f003 0304 	and.w	r3, r3, #4
 8004146:	2b00      	cmp	r3, #0
 8004148:	d00b      	beq.n	8004162 <HAL_RTCEx_RTCIRQHandler+0x4a>
 800414a:	6878      	ldr	r0, [r7, #4]
 800414c:	f000 f824 	bl	8004198 <HAL_RTCEx_RTCEventErrorCallback>
 8004150:	687b      	ldr	r3, [r7, #4]
 8004152:	681b      	ldr	r3, [r3, #0]
 8004154:	f06f 0204 	mvn.w	r2, #4
 8004158:	605a      	str	r2, [r3, #4]
 800415a:	687b      	ldr	r3, [r7, #4]
 800415c:	2204      	movs	r2, #4
 800415e:	745a      	strb	r2, [r3, #17]
 8004160:	e005      	b.n	800416e <HAL_RTCEx_RTCIRQHandler+0x56>
 8004162:	6878      	ldr	r0, [r7, #4]
 8004164:	f000 f80f 	bl	8004186 <HAL_RTCEx_RTCEventCallback>
 8004168:	687b      	ldr	r3, [r7, #4]
 800416a:	2201      	movs	r2, #1
 800416c:	745a      	strb	r2, [r3, #17]
 800416e:	687b      	ldr	r3, [r7, #4]
 8004170:	681b      	ldr	r3, [r3, #0]
 8004172:	685a      	ldr	r2, [r3, #4]
 8004174:	687b      	ldr	r3, [r7, #4]
 8004176:	681b      	ldr	r3, [r3, #0]
 8004178:	f022 0201 	bic.w	r2, r2, #1
 800417c:	605a      	str	r2, [r3, #4]
 800417e:	bf00      	nop
 8004180:	3708      	adds	r7, #8
 8004182:	46bd      	mov	sp, r7
 8004184:	bd80      	pop	{r7, pc}

08004186 <HAL_RTCEx_RTCEventCallback>:
 8004186:	b480      	push	{r7}
 8004188:	b083      	sub	sp, #12
 800418a:	af00      	add	r7, sp, #0
 800418c:	6078      	str	r0, [r7, #4]
 800418e:	bf00      	nop
 8004190:	370c      	adds	r7, #12
 8004192:	46bd      	mov	sp, r7
 8004194:	bc80      	pop	{r7}
 8004196:	4770      	bx	lr

08004198 <HAL_RTCEx_RTCEventErrorCallback>:
 8004198:	b480      	push	{r7}
 800419a:	b083      	sub	sp, #12
 800419c:	af00      	add	r7, sp, #0
 800419e:	6078      	str	r0, [r7, #4]
 80041a0:	bf00      	nop
 80041a2:	370c      	adds	r7, #12
 80041a4:	46bd      	mov	sp, r7
 80041a6:	bc80      	pop	{r7}
 80041a8:	4770      	bx	lr
	...

080041ac <__errno>:
 80041ac:	4b01      	ldr	r3, [pc, #4]	; (80041b4 <__errno+0x8>)
 80041ae:	6818      	ldr	r0, [r3, #0]
 80041b0:	4770      	bx	lr
 80041b2:	bf00      	nop
 80041b4:	20000034 	.word	0x20000034

080041b8 <__libc_init_array>:
 80041b8:	b570      	push	{r4, r5, r6, lr}
 80041ba:	2500      	movs	r5, #0
 80041bc:	4e0c      	ldr	r6, [pc, #48]	; (80041f0 <__libc_init_array+0x38>)
 80041be:	4c0d      	ldr	r4, [pc, #52]	; (80041f4 <__libc_init_array+0x3c>)
 80041c0:	1ba4      	subs	r4, r4, r6
 80041c2:	10a4      	asrs	r4, r4, #2
 80041c4:	42a5      	cmp	r5, r4
 80041c6:	d109      	bne.n	80041dc <__libc_init_array+0x24>
 80041c8:	f000 fc44 	bl	8004a54 <_init>
 80041cc:	2500      	movs	r5, #0
 80041ce:	4e0a      	ldr	r6, [pc, #40]	; (80041f8 <__libc_init_array+0x40>)
 80041d0:	4c0a      	ldr	r4, [pc, #40]	; (80041fc <__libc_init_array+0x44>)
 80041d2:	1ba4      	subs	r4, r4, r6
 80041d4:	10a4      	asrs	r4, r4, #2
 80041d6:	42a5      	cmp	r5, r4
 80041d8:	d105      	bne.n	80041e6 <__libc_init_array+0x2e>
 80041da:	bd70      	pop	{r4, r5, r6, pc}
 80041dc:	f856 3025 	ldr.w	r3, [r6, r5, lsl #2]
 80041e0:	4798      	blx	r3
 80041e2:	3501      	adds	r5, #1
 80041e4:	e7ee      	b.n	80041c4 <__libc_init_array+0xc>
 80041e6:	f856 3025 	ldr.w	r3, [r6, r5, lsl #2]
 80041ea:	4798      	blx	r3
 80041ec:	3501      	adds	r5, #1
 80041ee:	e7f2      	b.n	80041d6 <__libc_init_array+0x1e>
 80041f0:	08005f5c 	.word	0x08005f5c
 80041f4:	08005f5c 	.word	0x08005f5c
 80041f8:	08005f5c 	.word	0x08005f5c
 80041fc:	08005f60 	.word	0x08005f60

08004200 <memcmp>:
 8004200:	b530      	push	{r4, r5, lr}
 8004202:	2400      	movs	r4, #0
 8004204:	42a2      	cmp	r2, r4
 8004206:	d101      	bne.n	800420c <memcmp+0xc>
 8004208:	2000      	movs	r0, #0
 800420a:	e007      	b.n	800421c <memcmp+0x1c>
 800420c:	5d03      	ldrb	r3, [r0, r4]
 800420e:	3401      	adds	r4, #1
 8004210:	190d      	adds	r5, r1, r4
 8004212:	f815 5c01 	ldrb.w	r5, [r5, #-1]
 8004216:	42ab      	cmp	r3, r5
 8004218:	d0f4      	beq.n	8004204 <memcmp+0x4>
 800421a:	1b58      	subs	r0, r3, r5
 800421c:	bd30      	pop	{r4, r5, pc}

0800421e <memcpy>:
 800421e:	b510      	push	{r4, lr}
 8004220:	1e43      	subs	r3, r0, #1
 8004222:	440a      	add	r2, r1
 8004224:	4291      	cmp	r1, r2
 8004226:	d100      	bne.n	800422a <memcpy+0xc>
 8004228:	bd10      	pop	{r4, pc}
 800422a:	f811 4b01 	ldrb.w	r4, [r1], #1
 800422e:	f803 4f01 	strb.w	r4, [r3, #1]!
 8004232:	e7f7      	b.n	8004224 <memcpy+0x6>

08004234 <memset>:
 8004234:	4603      	mov	r3, r0
 8004236:	4402      	add	r2, r0
 8004238:	4293      	cmp	r3, r2
 800423a:	d100      	bne.n	800423e <memset+0xa>
 800423c:	4770      	bx	lr
 800423e:	f803 1b01 	strb.w	r1, [r3], #1
 8004242:	e7f9      	b.n	8004238 <memset+0x4>

08004244 <siprintf>:
 8004244:	b40e      	push	{r1, r2, r3}
 8004246:	f06f 4100 	mvn.w	r1, #2147483648	; 0x80000000
 800424a:	b500      	push	{lr}
 800424c:	b09c      	sub	sp, #112	; 0x70
 800424e:	ab1d      	add	r3, sp, #116	; 0x74
 8004250:	9002      	str	r0, [sp, #8]
 8004252:	9006      	str	r0, [sp, #24]
 8004254:	9107      	str	r1, [sp, #28]
 8004256:	9104      	str	r1, [sp, #16]
 8004258:	4808      	ldr	r0, [pc, #32]	; (800427c <siprintf+0x38>)
 800425a:	4909      	ldr	r1, [pc, #36]	; (8004280 <siprintf+0x3c>)
 800425c:	f853 2b04 	ldr.w	r2, [r3], #4
 8004260:	9105      	str	r1, [sp, #20]
 8004262:	6800      	ldr	r0, [r0, #0]
 8004264:	a902      	add	r1, sp, #8
 8004266:	9301      	str	r3, [sp, #4]
 8004268:	f000 f866 	bl	8004338 <_svfiprintf_r>
 800426c:	2200      	movs	r2, #0
 800426e:	9b02      	ldr	r3, [sp, #8]
 8004270:	701a      	strb	r2, [r3, #0]
 8004272:	b01c      	add	sp, #112	; 0x70
 8004274:	f85d eb04 	ldr.w	lr, [sp], #4
 8004278:	b003      	add	sp, #12
 800427a:	4770      	bx	lr
 800427c:	20000034 	.word	0x20000034
 8004280:	ffff0208 	.word	0xffff0208

08004284 <__ssputs_r>:
 8004284:	e92d 47f0 	stmdb	sp!, {r4, r5, r6, r7, r8, r9, sl, lr}
 8004288:	688e      	ldr	r6, [r1, #8]
 800428a:	4682      	mov	sl, r0
 800428c:	429e      	cmp	r6, r3
 800428e:	460c      	mov	r4, r1
 8004290:	4690      	mov	r8, r2
 8004292:	4699      	mov	r9, r3
 8004294:	d837      	bhi.n	8004306 <__ssputs_r+0x82>
 8004296:	898a      	ldrh	r2, [r1, #12]
 8004298:	f412 6f90 	tst.w	r2, #1152	; 0x480
 800429c:	d031      	beq.n	8004302 <__ssputs_r+0x7e>
 800429e:	2302      	movs	r3, #2
 80042a0:	6825      	ldr	r5, [r4, #0]
 80042a2:	6909      	ldr	r1, [r1, #16]
 80042a4:	1a6f      	subs	r7, r5, r1
 80042a6:	6965      	ldr	r5, [r4, #20]
 80042a8:	eb05 0545 	add.w	r5, r5, r5, lsl #1
 80042ac:	fb95 f5f3 	sdiv	r5, r5, r3
 80042b0:	f109 0301 	add.w	r3, r9, #1
 80042b4:	443b      	add	r3, r7
 80042b6:	429d      	cmp	r5, r3
 80042b8:	bf38      	it	cc
 80042ba:	461d      	movcc	r5, r3
 80042bc:	0553      	lsls	r3, r2, #21
 80042be:	d530      	bpl.n	8004322 <__ssputs_r+0x9e>
 80042c0:	4629      	mov	r1, r5
 80042c2:	f000 fb2d 	bl	8004920 <_malloc_r>
 80042c6:	4606      	mov	r6, r0
 80042c8:	b950      	cbnz	r0, 80042e0 <__ssputs_r+0x5c>
 80042ca:	230c      	movs	r3, #12
 80042cc:	f04f 30ff 	mov.w	r0, #4294967295
 80042d0:	f8ca 3000 	str.w	r3, [sl]
 80042d4:	89a3      	ldrh	r3, [r4, #12]
 80042d6:	f043 0340 	orr.w	r3, r3, #64	; 0x40
 80042da:	81a3      	strh	r3, [r4, #12]
 80042dc:	e8bd 87f0 	ldmia.w	sp!, {r4, r5, r6, r7, r8, r9, sl, pc}
 80042e0:	463a      	mov	r2, r7
 80042e2:	6921      	ldr	r1, [r4, #16]
 80042e4:	f7ff ff9b 	bl	800421e <memcpy>
 80042e8:	89a3      	ldrh	r3, [r4, #12]
 80042ea:	f423 6390 	bic.w	r3, r3, #1152	; 0x480
 80042ee:	f043 0380 	orr.w	r3, r3, #128	; 0x80
 80042f2:	81a3      	strh	r3, [r4, #12]
 80042f4:	6126      	str	r6, [r4, #16]
 80042f6:	443e      	add	r6, r7
 80042f8:	6026      	str	r6, [r4, #0]
 80042fa:	464e      	mov	r6, r9
 80042fc:	6165      	str	r5, [r4, #20]
 80042fe:	1bed      	subs	r5, r5, r7
 8004300:	60a5      	str	r5, [r4, #8]
 8004302:	454e      	cmp	r6, r9
 8004304:	d900      	bls.n	8004308 <__ssputs_r+0x84>
 8004306:	464e      	mov	r6, r9
 8004308:	4632      	mov	r2, r6
 800430a:	4641      	mov	r1, r8
 800430c:	6820      	ldr	r0, [r4, #0]
 800430e:	f000 faa1 	bl	8004854 <memmove>
 8004312:	68a3      	ldr	r3, [r4, #8]
 8004314:	2000      	movs	r0, #0
 8004316:	1b9b      	subs	r3, r3, r6
 8004318:	60a3      	str	r3, [r4, #8]
 800431a:	6823      	ldr	r3, [r4, #0]
 800431c:	441e      	add	r6, r3
 800431e:	6026      	str	r6, [r4, #0]
 8004320:	e7dc      	b.n	80042dc <__ssputs_r+0x58>
 8004322:	462a      	mov	r2, r5
 8004324:	f000 fb56 	bl	80049d4 <_realloc_r>
 8004328:	4606      	mov	r6, r0
 800432a:	2800      	cmp	r0, #0
 800432c:	d1e2      	bne.n	80042f4 <__ssputs_r+0x70>
 800432e:	6921      	ldr	r1, [r4, #16]
 8004330:	4650      	mov	r0, sl
 8004332:	f000 faa9 	bl	8004888 <_free_r>
 8004336:	e7c8      	b.n	80042ca <__ssputs_r+0x46>

08004338 <_svfiprintf_r>:
 8004338:	e92d 4ff0 	stmdb	sp!, {r4, r5, r6, r7, r8, r9, sl, fp, lr}
 800433c:	461d      	mov	r5, r3
 800433e:	898b      	ldrh	r3, [r1, #12]
 8004340:	b09d      	sub	sp, #116	; 0x74
 8004342:	061f      	lsls	r7, r3, #24
 8004344:	4680      	mov	r8, r0
 8004346:	460c      	mov	r4, r1
 8004348:	4616      	mov	r6, r2
 800434a:	d50f      	bpl.n	800436c <_svfiprintf_r+0x34>
 800434c:	690b      	ldr	r3, [r1, #16]
 800434e:	b96b      	cbnz	r3, 800436c <_svfiprintf_r+0x34>
 8004350:	2140      	movs	r1, #64	; 0x40
 8004352:	f000 fae5 	bl	8004920 <_malloc_r>
 8004356:	6020      	str	r0, [r4, #0]
 8004358:	6120      	str	r0, [r4, #16]
 800435a:	b928      	cbnz	r0, 8004368 <_svfiprintf_r+0x30>
 800435c:	230c      	movs	r3, #12
 800435e:	f8c8 3000 	str.w	r3, [r8]
 8004362:	f04f 30ff 	mov.w	r0, #4294967295
 8004366:	e0c8      	b.n	80044fa <_svfiprintf_r+0x1c2>
 8004368:	2340      	movs	r3, #64	; 0x40
 800436a:	6163      	str	r3, [r4, #20]
 800436c:	2300      	movs	r3, #0
 800436e:	9309      	str	r3, [sp, #36]	; 0x24
 8004370:	2320      	movs	r3, #32
 8004372:	f88d 3029 	strb.w	r3, [sp, #41]	; 0x29
 8004376:	2330      	movs	r3, #48	; 0x30
 8004378:	f04f 0b01 	mov.w	fp, #1
 800437c:	f88d 302a 	strb.w	r3, [sp, #42]	; 0x2a
 8004380:	9503      	str	r5, [sp, #12]
 8004382:	4637      	mov	r7, r6
 8004384:	463d      	mov	r5, r7
 8004386:	f815 3b01 	ldrb.w	r3, [r5], #1
 800438a:	b10b      	cbz	r3, 8004390 <_svfiprintf_r+0x58>
 800438c:	2b25      	cmp	r3, #37	; 0x25
 800438e:	d13e      	bne.n	800440e <_svfiprintf_r+0xd6>
 8004390:	ebb7 0a06 	subs.w	sl, r7, r6
 8004394:	d00b      	beq.n	80043ae <_svfiprintf_r+0x76>
 8004396:	4653      	mov	r3, sl
 8004398:	4632      	mov	r2, r6
 800439a:	4621      	mov	r1, r4
 800439c:	4640      	mov	r0, r8
 800439e:	f7ff ff71 	bl	8004284 <__ssputs_r>
 80043a2:	3001      	adds	r0, #1
 80043a4:	f000 80a4 	beq.w	80044f0 <_svfiprintf_r+0x1b8>
 80043a8:	9b09      	ldr	r3, [sp, #36]	; 0x24
 80043aa:	4453      	add	r3, sl
 80043ac:	9309      	str	r3, [sp, #36]	; 0x24
 80043ae:	783b      	ldrb	r3, [r7, #0]
 80043b0:	2b00      	cmp	r3, #0
 80043b2:	f000 809d 	beq.w	80044f0 <_svfiprintf_r+0x1b8>
 80043b6:	2300      	movs	r3, #0
 80043b8:	f04f 32ff 	mov.w	r2, #4294967295
 80043bc:	e9cd 2305 	strd	r2, r3, [sp, #20]
 80043c0:	9304      	str	r3, [sp, #16]
 80043c2:	9307      	str	r3, [sp, #28]
 80043c4:	f88d 3053 	strb.w	r3, [sp, #83]	; 0x53
 80043c8:	931a      	str	r3, [sp, #104]	; 0x68
 80043ca:	462f      	mov	r7, r5
 80043cc:	2205      	movs	r2, #5
 80043ce:	f817 1b01 	ldrb.w	r1, [r7], #1
 80043d2:	4850      	ldr	r0, [pc, #320]	; (8004514 <_svfiprintf_r+0x1dc>)
 80043d4:	f000 fa30 	bl	8004838 <memchr>
 80043d8:	9b04      	ldr	r3, [sp, #16]
 80043da:	b9d0      	cbnz	r0, 8004412 <_svfiprintf_r+0xda>
 80043dc:	06d9      	lsls	r1, r3, #27
 80043de:	bf44      	itt	mi
 80043e0:	2220      	movmi	r2, #32
 80043e2:	f88d 2053 	strbmi.w	r2, [sp, #83]	; 0x53
 80043e6:	071a      	lsls	r2, r3, #28
 80043e8:	bf44      	itt	mi
 80043ea:	222b      	movmi	r2, #43	; 0x2b
 80043ec:	f88d 2053 	strbmi.w	r2, [sp, #83]	; 0x53
 80043f0:	782a      	ldrb	r2, [r5, #0]
 80043f2:	2a2a      	cmp	r2, #42	; 0x2a
 80043f4:	d015      	beq.n	8004422 <_svfiprintf_r+0xea>
 80043f6:	462f      	mov	r7, r5
 80043f8:	2000      	movs	r0, #0
 80043fa:	250a      	movs	r5, #10
 80043fc:	9a07      	ldr	r2, [sp, #28]
 80043fe:	4639      	mov	r1, r7
 8004400:	f811 3b01 	ldrb.w	r3, [r1], #1
 8004404:	3b30      	subs	r3, #48	; 0x30
 8004406:	2b09      	cmp	r3, #9
 8004408:	d94d      	bls.n	80044a6 <_svfiprintf_r+0x16e>
 800440a:	b1b8      	cbz	r0, 800443c <_svfiprintf_r+0x104>
 800440c:	e00f      	b.n	800442e <_svfiprintf_r+0xf6>
 800440e:	462f      	mov	r7, r5
 8004410:	e7b8      	b.n	8004384 <_svfiprintf_r+0x4c>
 8004412:	4a40      	ldr	r2, [pc, #256]	; (8004514 <_svfiprintf_r+0x1dc>)
 8004414:	463d      	mov	r5, r7
 8004416:	1a80      	subs	r0, r0, r2
 8004418:	fa0b f000 	lsl.w	r0, fp, r0
 800441c:	4318      	orrs	r0, r3
 800441e:	9004      	str	r0, [sp, #16]
 8004420:	e7d3      	b.n	80043ca <_svfiprintf_r+0x92>
 8004422:	9a03      	ldr	r2, [sp, #12]
 8004424:	1d11      	adds	r1, r2, #4
 8004426:	6812      	ldr	r2, [r2, #0]
 8004428:	9103      	str	r1, [sp, #12]
 800442a:	2a00      	cmp	r2, #0
 800442c:	db01      	blt.n	8004432 <_svfiprintf_r+0xfa>
 800442e:	9207      	str	r2, [sp, #28]
 8004430:	e004      	b.n	800443c <_svfiprintf_r+0x104>
 8004432:	4252      	negs	r2, r2
 8004434:	f043 0302 	orr.w	r3, r3, #2
 8004438:	9207      	str	r2, [sp, #28]
 800443a:	9304      	str	r3, [sp, #16]
 800443c:	783b      	ldrb	r3, [r7, #0]
 800443e:	2b2e      	cmp	r3, #46	; 0x2e
 8004440:	d10c      	bne.n	800445c <_svfiprintf_r+0x124>
 8004442:	787b      	ldrb	r3, [r7, #1]
 8004444:	2b2a      	cmp	r3, #42	; 0x2a
 8004446:	d133      	bne.n	80044b0 <_svfiprintf_r+0x178>
 8004448:	9b03      	ldr	r3, [sp, #12]
 800444a:	3702      	adds	r7, #2
 800444c:	1d1a      	adds	r2, r3, #4
 800444e:	681b      	ldr	r3, [r3, #0]
 8004450:	9203      	str	r2, [sp, #12]
 8004452:	2b00      	cmp	r3, #0
 8004454:	bfb8      	it	lt
 8004456:	f04f 33ff 	movlt.w	r3, #4294967295
 800445a:	9305      	str	r3, [sp, #20]
 800445c:	4d2e      	ldr	r5, [pc, #184]	; (8004518 <_svfiprintf_r+0x1e0>)
 800445e:	2203      	movs	r2, #3
 8004460:	7839      	ldrb	r1, [r7, #0]
 8004462:	4628      	mov	r0, r5
 8004464:	f000 f9e8 	bl	8004838 <memchr>
 8004468:	b138      	cbz	r0, 800447a <_svfiprintf_r+0x142>
 800446a:	2340      	movs	r3, #64	; 0x40
 800446c:	1b40      	subs	r0, r0, r5
 800446e:	fa03 f000 	lsl.w	r0, r3, r0
 8004472:	9b04      	ldr	r3, [sp, #16]
 8004474:	3701      	adds	r7, #1
 8004476:	4303      	orrs	r3, r0
 8004478:	9304      	str	r3, [sp, #16]
 800447a:	7839      	ldrb	r1, [r7, #0]
 800447c:	2206      	movs	r2, #6
 800447e:	4827      	ldr	r0, [pc, #156]	; (800451c <_svfiprintf_r+0x1e4>)
 8004480:	1c7e      	adds	r6, r7, #1
 8004482:	f88d 1028 	strb.w	r1, [sp, #40]	; 0x28
 8004486:	f000 f9d7 	bl	8004838 <memchr>
 800448a:	2800      	cmp	r0, #0
 800448c:	d038      	beq.n	8004500 <_svfiprintf_r+0x1c8>
 800448e:	4b24      	ldr	r3, [pc, #144]	; (8004520 <_svfiprintf_r+0x1e8>)
 8004490:	bb13      	cbnz	r3, 80044d8 <_svfiprintf_r+0x1a0>
 8004492:	9b03      	ldr	r3, [sp, #12]
 8004494:	3307      	adds	r3, #7
 8004496:	f023 0307 	bic.w	r3, r3, #7
 800449a:	3308      	adds	r3, #8
 800449c:	9303      	str	r3, [sp, #12]
 800449e:	9b09      	ldr	r3, [sp, #36]	; 0x24
 80044a0:	444b      	add	r3, r9
 80044a2:	9309      	str	r3, [sp, #36]	; 0x24
 80044a4:	e76d      	b.n	8004382 <_svfiprintf_r+0x4a>
 80044a6:	fb05 3202 	mla	r2, r5, r2, r3
 80044aa:	2001      	movs	r0, #1
 80044ac:	460f      	mov	r7, r1
 80044ae:	e7a6      	b.n	80043fe <_svfiprintf_r+0xc6>
 80044b0:	2300      	movs	r3, #0
 80044b2:	250a      	movs	r5, #10
 80044b4:	4619      	mov	r1, r3
 80044b6:	3701      	adds	r7, #1
 80044b8:	9305      	str	r3, [sp, #20]
 80044ba:	4638      	mov	r0, r7
 80044bc:	f810 2b01 	ldrb.w	r2, [r0], #1
 80044c0:	3a30      	subs	r2, #48	; 0x30
 80044c2:	2a09      	cmp	r2, #9
 80044c4:	d903      	bls.n	80044ce <_svfiprintf_r+0x196>
 80044c6:	2b00      	cmp	r3, #0
 80044c8:	d0c8      	beq.n	800445c <_svfiprintf_r+0x124>
 80044ca:	9105      	str	r1, [sp, #20]
 80044cc:	e7c6      	b.n	800445c <_svfiprintf_r+0x124>
 80044ce:	fb05 2101 	mla	r1, r5, r1, r2
 80044d2:	2301      	movs	r3, #1
 80044d4:	4607      	mov	r7, r0
 80044d6:	e7f0      	b.n	80044ba <_svfiprintf_r+0x182>
 80044d8:	ab03      	add	r3, sp, #12
 80044da:	9300      	str	r3, [sp, #0]
 80044dc:	4622      	mov	r2, r4
 80044de:	4b11      	ldr	r3, [pc, #68]	; (8004524 <_svfiprintf_r+0x1ec>)
 80044e0:	a904      	add	r1, sp, #16
 80044e2:	4640      	mov	r0, r8
 80044e4:	f3af 8000 	nop.w
 80044e8:	f1b0 3fff 	cmp.w	r0, #4294967295
 80044ec:	4681      	mov	r9, r0
 80044ee:	d1d6      	bne.n	800449e <_svfiprintf_r+0x166>
 80044f0:	89a3      	ldrh	r3, [r4, #12]
 80044f2:	065b      	lsls	r3, r3, #25
 80044f4:	f53f af35 	bmi.w	8004362 <_svfiprintf_r+0x2a>
 80044f8:	9809      	ldr	r0, [sp, #36]	; 0x24
 80044fa:	b01d      	add	sp, #116	; 0x74
 80044fc:	e8bd 8ff0 	ldmia.w	sp!, {r4, r5, r6, r7, r8, r9, sl, fp, pc}
 8004500:	ab03      	add	r3, sp, #12
 8004502:	9300      	str	r3, [sp, #0]
 8004504:	4622      	mov	r2, r4
 8004506:	4b07      	ldr	r3, [pc, #28]	; (8004524 <_svfiprintf_r+0x1ec>)
 8004508:	a904      	add	r1, sp, #16
 800450a:	4640      	mov	r0, r8
 800450c:	f000 f882 	bl	8004614 <_printf_i>
 8004510:	e7ea      	b.n	80044e8 <_svfiprintf_r+0x1b0>
 8004512:	bf00      	nop
 8004514:	08005f28 	.word	0x08005f28
 8004518:	08005f2e 	.word	0x08005f2e
 800451c:	08005f32 	.word	0x08005f32
 8004520:	00000000 	.word	0x00000000
 8004524:	08004285 	.word	0x08004285

08004528 <_printf_common>:
 8004528:	e92d 47f0 	stmdb	sp!, {r4, r5, r6, r7, r8, r9, sl, lr}
 800452c:	4691      	mov	r9, r2
 800452e:	461f      	mov	r7, r3
 8004530:	688a      	ldr	r2, [r1, #8]
 8004532:	690b      	ldr	r3, [r1, #16]
 8004534:	4606      	mov	r6, r0
 8004536:	4293      	cmp	r3, r2
 8004538:	bfb8      	it	lt
 800453a:	4613      	movlt	r3, r2
 800453c:	f8c9 3000 	str.w	r3, [r9]
 8004540:	f891 2043 	ldrb.w	r2, [r1, #67]	; 0x43
 8004544:	460c      	mov	r4, r1
 8004546:	f8dd 8020 	ldr.w	r8, [sp, #32]
 800454a:	b112      	cbz	r2, 8004552 <_printf_common+0x2a>
 800454c:	3301      	adds	r3, #1
 800454e:	f8c9 3000 	str.w	r3, [r9]
 8004552:	6823      	ldr	r3, [r4, #0]
 8004554:	0699      	lsls	r1, r3, #26
 8004556:	bf42      	ittt	mi
 8004558:	f8d9 3000 	ldrmi.w	r3, [r9]
 800455c:	3302      	addmi	r3, #2
 800455e:	f8c9 3000 	strmi.w	r3, [r9]
 8004562:	6825      	ldr	r5, [r4, #0]
 8004564:	f015 0506 	ands.w	r5, r5, #6
 8004568:	d107      	bne.n	800457a <_printf_common+0x52>
 800456a:	f104 0a19 	add.w	sl, r4, #25
 800456e:	68e3      	ldr	r3, [r4, #12]
 8004570:	f8d9 2000 	ldr.w	r2, [r9]
 8004574:	1a9b      	subs	r3, r3, r2
 8004576:	42ab      	cmp	r3, r5
 8004578:	dc29      	bgt.n	80045ce <_printf_common+0xa6>
 800457a:	f894 3043 	ldrb.w	r3, [r4, #67]	; 0x43
 800457e:	6822      	ldr	r2, [r4, #0]
 8004580:	3300      	adds	r3, #0
 8004582:	bf18      	it	ne
 8004584:	2301      	movne	r3, #1
 8004586:	0692      	lsls	r2, r2, #26
 8004588:	d42e      	bmi.n	80045e8 <_printf_common+0xc0>
 800458a:	f104 0243 	add.w	r2, r4, #67	; 0x43
 800458e:	4639      	mov	r1, r7
 8004590:	4630      	mov	r0, r6
 8004592:	47c0      	blx	r8
 8004594:	3001      	adds	r0, #1
 8004596:	d021      	beq.n	80045dc <_printf_common+0xb4>
 8004598:	6823      	ldr	r3, [r4, #0]
 800459a:	68e5      	ldr	r5, [r4, #12]
 800459c:	f003 0306 	and.w	r3, r3, #6
 80045a0:	2b04      	cmp	r3, #4
 80045a2:	bf18      	it	ne
 80045a4:	2500      	movne	r5, #0
 80045a6:	f8d9 2000 	ldr.w	r2, [r9]
 80045aa:	f04f 0900 	mov.w	r9, #0
 80045ae:	bf08      	it	eq
 80045b0:	1aad      	subeq	r5, r5, r2
 80045b2:	68a3      	ldr	r3, [r4, #8]
 80045b4:	6922      	ldr	r2, [r4, #16]
 80045b6:	bf08      	it	eq
 80045b8:	ea25 75e5 	biceq.w	r5, r5, r5, asr #31
 80045bc:	4293      	cmp	r3, r2
 80045be:	bfc4      	itt	gt
 80045c0:	1a9b      	subgt	r3, r3, r2
 80045c2:	18ed      	addgt	r5, r5, r3
 80045c4:	341a      	adds	r4, #26
 80045c6:	454d      	cmp	r5, r9
 80045c8:	d11a      	bne.n	8004600 <_printf_common+0xd8>
 80045ca:	2000      	movs	r0, #0
 80045cc:	e008      	b.n	80045e0 <_printf_common+0xb8>
 80045ce:	2301      	movs	r3, #1
 80045d0:	4652      	mov	r2, sl
 80045d2:	4639      	mov	r1, r7
 80045d4:	4630      	mov	r0, r6
 80045d6:	47c0      	blx	r8
 80045d8:	3001      	adds	r0, #1
 80045da:	d103      	bne.n	80045e4 <_printf_common+0xbc>
 80045dc:	f04f 30ff 	mov.w	r0, #4294967295
 80045e0:	e8bd 87f0 	ldmia.w	sp!, {r4, r5, r6, r7, r8, r9, sl, pc}
 80045e4:	3501      	adds	r5, #1
 80045e6:	e7c2      	b.n	800456e <_printf_common+0x46>
 80045e8:	2030      	movs	r0, #48	; 0x30
 80045ea:	18e1      	adds	r1, r4, r3
 80045ec:	f881 0043 	strb.w	r0, [r1, #67]	; 0x43
 80045f0:	1c5a      	adds	r2, r3, #1
 80045f2:	f894 1045 	ldrb.w	r1, [r4, #69]	; 0x45
 80045f6:	4422      	add	r2, r4
 80045f8:	3302      	adds	r3, #2
 80045fa:	f882 1043 	strb.w	r1, [r2, #67]	; 0x43
 80045fe:	e7c4      	b.n	800458a <_printf_common+0x62>
 8004600:	2301      	movs	r3, #1
 8004602:	4622      	mov	r2, r4
 8004604:	4639      	mov	r1, r7
 8004606:	4630      	mov	r0, r6
 8004608:	47c0      	blx	r8
 800460a:	3001      	adds	r0, #1
 800460c:	d0e6      	beq.n	80045dc <_printf_common+0xb4>
 800460e:	f109 0901 	add.w	r9, r9, #1
 8004612:	e7d8      	b.n	80045c6 <_printf_common+0x9e>

08004614 <_printf_i>:
 8004614:	e92d 43f0 	stmdb	sp!, {r4, r5, r6, r7, r8, r9, lr}
 8004618:	f101 0c43 	add.w	ip, r1, #67	; 0x43
 800461c:	460c      	mov	r4, r1
 800461e:	7e09      	ldrb	r1, [r1, #24]
 8004620:	b085      	sub	sp, #20
 8004622:	296e      	cmp	r1, #110	; 0x6e
 8004624:	4617      	mov	r7, r2
 8004626:	4606      	mov	r6, r0
 8004628:	4698      	mov	r8, r3
 800462a:	9a0c      	ldr	r2, [sp, #48]	; 0x30
 800462c:	f000 80b3 	beq.w	8004796 <_printf_i+0x182>
 8004630:	d822      	bhi.n	8004678 <_printf_i+0x64>
 8004632:	2963      	cmp	r1, #99	; 0x63
 8004634:	d036      	beq.n	80046a4 <_printf_i+0x90>
 8004636:	d80a      	bhi.n	800464e <_printf_i+0x3a>
 8004638:	2900      	cmp	r1, #0
 800463a:	f000 80b9 	beq.w	80047b0 <_printf_i+0x19c>
 800463e:	2958      	cmp	r1, #88	; 0x58
 8004640:	f000 8083 	beq.w	800474a <_printf_i+0x136>
 8004644:	f104 0542 	add.w	r5, r4, #66	; 0x42
 8004648:	f884 1042 	strb.w	r1, [r4, #66]	; 0x42
 800464c:	e032      	b.n	80046b4 <_printf_i+0xa0>
 800464e:	2964      	cmp	r1, #100	; 0x64
 8004650:	d001      	beq.n	8004656 <_printf_i+0x42>
 8004652:	2969      	cmp	r1, #105	; 0x69
 8004654:	d1f6      	bne.n	8004644 <_printf_i+0x30>
 8004656:	6820      	ldr	r0, [r4, #0]
 8004658:	6813      	ldr	r3, [r2, #0]
 800465a:	0605      	lsls	r5, r0, #24
 800465c:	f103 0104 	add.w	r1, r3, #4
 8004660:	d52a      	bpl.n	80046b8 <_printf_i+0xa4>
 8004662:	681b      	ldr	r3, [r3, #0]
 8004664:	6011      	str	r1, [r2, #0]
 8004666:	2b00      	cmp	r3, #0
 8004668:	da03      	bge.n	8004672 <_printf_i+0x5e>
 800466a:	222d      	movs	r2, #45	; 0x2d
 800466c:	425b      	negs	r3, r3
 800466e:	f884 2043 	strb.w	r2, [r4, #67]	; 0x43
 8004672:	486f      	ldr	r0, [pc, #444]	; (8004830 <_printf_i+0x21c>)
 8004674:	220a      	movs	r2, #10
 8004676:	e039      	b.n	80046ec <_printf_i+0xd8>
 8004678:	2973      	cmp	r1, #115	; 0x73
 800467a:	f000 809d 	beq.w	80047b8 <_printf_i+0x1a4>
 800467e:	d808      	bhi.n	8004692 <_printf_i+0x7e>
 8004680:	296f      	cmp	r1, #111	; 0x6f
 8004682:	d020      	beq.n	80046c6 <_printf_i+0xb2>
 8004684:	2970      	cmp	r1, #112	; 0x70
 8004686:	d1dd      	bne.n	8004644 <_printf_i+0x30>
 8004688:	6823      	ldr	r3, [r4, #0]
 800468a:	f043 0320 	orr.w	r3, r3, #32
 800468e:	6023      	str	r3, [r4, #0]
 8004690:	e003      	b.n	800469a <_printf_i+0x86>
 8004692:	2975      	cmp	r1, #117	; 0x75
 8004694:	d017      	beq.n	80046c6 <_printf_i+0xb2>
 8004696:	2978      	cmp	r1, #120	; 0x78
 8004698:	d1d4      	bne.n	8004644 <_printf_i+0x30>
 800469a:	2378      	movs	r3, #120	; 0x78
 800469c:	4865      	ldr	r0, [pc, #404]	; (8004834 <_printf_i+0x220>)
 800469e:	f884 3045 	strb.w	r3, [r4, #69]	; 0x45
 80046a2:	e055      	b.n	8004750 <_printf_i+0x13c>
 80046a4:	6813      	ldr	r3, [r2, #0]
 80046a6:	f104 0542 	add.w	r5, r4, #66	; 0x42
 80046aa:	1d19      	adds	r1, r3, #4
 80046ac:	681b      	ldr	r3, [r3, #0]
 80046ae:	6011      	str	r1, [r2, #0]
 80046b0:	f884 3042 	strb.w	r3, [r4, #66]	; 0x42
 80046b4:	2301      	movs	r3, #1
 80046b6:	e08c      	b.n	80047d2 <_printf_i+0x1be>
 80046b8:	681b      	ldr	r3, [r3, #0]
 80046ba:	f010 0f40 	tst.w	r0, #64	; 0x40
 80046be:	6011      	str	r1, [r2, #0]
 80046c0:	bf18      	it	ne
 80046c2:	b21b      	sxthne	r3, r3
 80046c4:	e7cf      	b.n	8004666 <_printf_i+0x52>
 80046c6:	6813      	ldr	r3, [r2, #0]
 80046c8:	6825      	ldr	r5, [r4, #0]
 80046ca:	1d18      	adds	r0, r3, #4
 80046cc:	6010      	str	r0, [r2, #0]
 80046ce:	0628      	lsls	r0, r5, #24
 80046d0:	d501      	bpl.n	80046d6 <_printf_i+0xc2>
 80046d2:	681b      	ldr	r3, [r3, #0]
 80046d4:	e002      	b.n	80046dc <_printf_i+0xc8>
 80046d6:	0668      	lsls	r0, r5, #25
 80046d8:	d5fb      	bpl.n	80046d2 <_printf_i+0xbe>
 80046da:	881b      	ldrh	r3, [r3, #0]
 80046dc:	296f      	cmp	r1, #111	; 0x6f
 80046de:	bf14      	ite	ne
 80046e0:	220a      	movne	r2, #10
 80046e2:	2208      	moveq	r2, #8
 80046e4:	4852      	ldr	r0, [pc, #328]	; (8004830 <_printf_i+0x21c>)
 80046e6:	2100      	movs	r1, #0
 80046e8:	f884 1043 	strb.w	r1, [r4, #67]	; 0x43
 80046ec:	6865      	ldr	r5, [r4, #4]
 80046ee:	2d00      	cmp	r5, #0
 80046f0:	60a5      	str	r5, [r4, #8]
 80046f2:	f2c0 8095 	blt.w	8004820 <_printf_i+0x20c>
 80046f6:	6821      	ldr	r1, [r4, #0]
 80046f8:	f021 0104 	bic.w	r1, r1, #4
 80046fc:	6021      	str	r1, [r4, #0]
 80046fe:	2b00      	cmp	r3, #0
 8004700:	d13d      	bne.n	800477e <_printf_i+0x16a>
 8004702:	2d00      	cmp	r5, #0
 8004704:	f040 808e 	bne.w	8004824 <_printf_i+0x210>
 8004708:	4665      	mov	r5, ip
 800470a:	2a08      	cmp	r2, #8
 800470c:	d10b      	bne.n	8004726 <_printf_i+0x112>
 800470e:	6823      	ldr	r3, [r4, #0]
 8004710:	07db      	lsls	r3, r3, #31
 8004712:	d508      	bpl.n	8004726 <_printf_i+0x112>
 8004714:	6923      	ldr	r3, [r4, #16]
 8004716:	6862      	ldr	r2, [r4, #4]
 8004718:	429a      	cmp	r2, r3
 800471a:	bfde      	ittt	le
 800471c:	2330      	movle	r3, #48	; 0x30
 800471e:	f805 3c01 	strble.w	r3, [r5, #-1]
 8004722:	f105 35ff 	addle.w	r5, r5, #4294967295
 8004726:	ebac 0305 	sub.w	r3, ip, r5
 800472a:	6123      	str	r3, [r4, #16]
 800472c:	f8cd 8000 	str.w	r8, [sp]
 8004730:	463b      	mov	r3, r7
 8004732:	aa03      	add	r2, sp, #12
 8004734:	4621      	mov	r1, r4
 8004736:	4630      	mov	r0, r6
 8004738:	f7ff fef6 	bl	8004528 <_printf_common>
 800473c:	3001      	adds	r0, #1
 800473e:	d14d      	bne.n	80047dc <_printf_i+0x1c8>
 8004740:	f04f 30ff 	mov.w	r0, #4294967295
 8004744:	b005      	add	sp, #20
 8004746:	e8bd 83f0 	ldmia.w	sp!, {r4, r5, r6, r7, r8, r9, pc}
 800474a:	4839      	ldr	r0, [pc, #228]	; (8004830 <_printf_i+0x21c>)
 800474c:	f884 1045 	strb.w	r1, [r4, #69]	; 0x45
 8004750:	6813      	ldr	r3, [r2, #0]
 8004752:	6821      	ldr	r1, [r4, #0]
 8004754:	1d1d      	adds	r5, r3, #4
 8004756:	681b      	ldr	r3, [r3, #0]
 8004758:	6015      	str	r5, [r2, #0]
 800475a:	060a      	lsls	r2, r1, #24
 800475c:	d50b      	bpl.n	8004776 <_printf_i+0x162>
 800475e:	07ca      	lsls	r2, r1, #31
 8004760:	bf44      	itt	mi
 8004762:	f041 0120 	orrmi.w	r1, r1, #32
 8004766:	6021      	strmi	r1, [r4, #0]
 8004768:	b91b      	cbnz	r3, 8004772 <_printf_i+0x15e>
 800476a:	6822      	ldr	r2, [r4, #0]
 800476c:	f022 0220 	bic.w	r2, r2, #32
 8004770:	6022      	str	r2, [r4, #0]
 8004772:	2210      	movs	r2, #16
 8004774:	e7b7      	b.n	80046e6 <_printf_i+0xd2>
 8004776:	064d      	lsls	r5, r1, #25
 8004778:	bf48      	it	mi
 800477a:	b29b      	uxthmi	r3, r3
 800477c:	e7ef      	b.n	800475e <_printf_i+0x14a>
 800477e:	4665      	mov	r5, ip
 8004780:	fbb3 f1f2 	udiv	r1, r3, r2
 8004784:	fb02 3311 	mls	r3, r2, r1, r3
 8004788:	5cc3      	ldrb	r3, [r0, r3]
 800478a:	f805 3d01 	strb.w	r3, [r5, #-1]!
 800478e:	460b      	mov	r3, r1
 8004790:	2900      	cmp	r1, #0
 8004792:	d1f5      	bne.n	8004780 <_printf_i+0x16c>
 8004794:	e7b9      	b.n	800470a <_printf_i+0xf6>
 8004796:	6813      	ldr	r3, [r2, #0]
 8004798:	6825      	ldr	r5, [r4, #0]
 800479a:	1d18      	adds	r0, r3, #4
 800479c:	6961      	ldr	r1, [r4, #20]
 800479e:	6010      	str	r0, [r2, #0]
 80047a0:	0628      	lsls	r0, r5, #24
 80047a2:	681b      	ldr	r3, [r3, #0]
 80047a4:	d501      	bpl.n	80047aa <_printf_i+0x196>
 80047a6:	6019      	str	r1, [r3, #0]
 80047a8:	e002      	b.n	80047b0 <_printf_i+0x19c>
 80047aa:	066a      	lsls	r2, r5, #25
 80047ac:	d5fb      	bpl.n	80047a6 <_printf_i+0x192>
 80047ae:	8019      	strh	r1, [r3, #0]
 80047b0:	2300      	movs	r3, #0
 80047b2:	4665      	mov	r5, ip
 80047b4:	6123      	str	r3, [r4, #16]
 80047b6:	e7b9      	b.n	800472c <_printf_i+0x118>
 80047b8:	6813      	ldr	r3, [r2, #0]
 80047ba:	1d19      	adds	r1, r3, #4
 80047bc:	6011      	str	r1, [r2, #0]
 80047be:	681d      	ldr	r5, [r3, #0]
 80047c0:	6862      	ldr	r2, [r4, #4]
 80047c2:	2100      	movs	r1, #0
 80047c4:	4628      	mov	r0, r5
 80047c6:	f000 f837 	bl	8004838 <memchr>
 80047ca:	b108      	cbz	r0, 80047d0 <_printf_i+0x1bc>
 80047cc:	1b40      	subs	r0, r0, r5
 80047ce:	6060      	str	r0, [r4, #4]
 80047d0:	6863      	ldr	r3, [r4, #4]
 80047d2:	6123      	str	r3, [r4, #16]
 80047d4:	2300      	movs	r3, #0
 80047d6:	f884 3043 	strb.w	r3, [r4, #67]	; 0x43
 80047da:	e7a7      	b.n	800472c <_printf_i+0x118>
 80047dc:	6923      	ldr	r3, [r4, #16]
 80047de:	462a      	mov	r2, r5
 80047e0:	4639      	mov	r1, r7
 80047e2:	4630      	mov	r0, r6
 80047e4:	47c0      	blx	r8
 80047e6:	3001      	adds	r0, #1
 80047e8:	d0aa      	beq.n	8004740 <_printf_i+0x12c>
 80047ea:	6823      	ldr	r3, [r4, #0]
 80047ec:	079b      	lsls	r3, r3, #30
 80047ee:	d413      	bmi.n	8004818 <_printf_i+0x204>
 80047f0:	68e0      	ldr	r0, [r4, #12]
 80047f2:	9b03      	ldr	r3, [sp, #12]
 80047f4:	4298      	cmp	r0, r3
 80047f6:	bfb8      	it	lt
 80047f8:	4618      	movlt	r0, r3
 80047fa:	e7a3      	b.n	8004744 <_printf_i+0x130>
 80047fc:	2301      	movs	r3, #1
 80047fe:	464a      	mov	r2, r9
 8004800:	4639      	mov	r1, r7
 8004802:	4630      	mov	r0, r6
 8004804:	47c0      	blx	r8
 8004806:	3001      	adds	r0, #1
 8004808:	d09a      	beq.n	8004740 <_printf_i+0x12c>
 800480a:	3501      	adds	r5, #1
 800480c:	68e3      	ldr	r3, [r4, #12]
 800480e:	9a03      	ldr	r2, [sp, #12]
 8004810:	1a9b      	subs	r3, r3, r2
 8004812:	42ab      	cmp	r3, r5
 8004814:	dcf2      	bgt.n	80047fc <_printf_i+0x1e8>
 8004816:	e7eb      	b.n	80047f0 <_printf_i+0x1dc>
 8004818:	2500      	movs	r5, #0
 800481a:	f104 0919 	add.w	r9, r4, #25
 800481e:	e7f5      	b.n	800480c <_printf_i+0x1f8>
 8004820:	2b00      	cmp	r3, #0
 8004822:	d1ac      	bne.n	800477e <_printf_i+0x16a>
 8004824:	7803      	ldrb	r3, [r0, #0]
 8004826:	f104 0542 	add.w	r5, r4, #66	; 0x42
 800482a:	f884 3042 	strb.w	r3, [r4, #66]	; 0x42
 800482e:	e76c      	b.n	800470a <_printf_i+0xf6>
 8004830:	08005f39 	.word	0x08005f39
 8004834:	08005f4a 	.word	0x08005f4a

08004838 <memchr>:
 8004838:	b510      	push	{r4, lr}
 800483a:	b2c9      	uxtb	r1, r1
 800483c:	4402      	add	r2, r0
 800483e:	4290      	cmp	r0, r2
 8004840:	4603      	mov	r3, r0
 8004842:	d101      	bne.n	8004848 <memchr+0x10>
 8004844:	2300      	movs	r3, #0
 8004846:	e003      	b.n	8004850 <memchr+0x18>
 8004848:	781c      	ldrb	r4, [r3, #0]
 800484a:	3001      	adds	r0, #1
 800484c:	428c      	cmp	r4, r1
 800484e:	d1f6      	bne.n	800483e <memchr+0x6>
 8004850:	4618      	mov	r0, r3
 8004852:	bd10      	pop	{r4, pc}

08004854 <memmove>:
 8004854:	4288      	cmp	r0, r1
 8004856:	b510      	push	{r4, lr}
 8004858:	eb01 0302 	add.w	r3, r1, r2
 800485c:	d807      	bhi.n	800486e <memmove+0x1a>
 800485e:	1e42      	subs	r2, r0, #1
 8004860:	4299      	cmp	r1, r3
 8004862:	d00a      	beq.n	800487a <memmove+0x26>
 8004864:	f811 4b01 	ldrb.w	r4, [r1], #1
 8004868:	f802 4f01 	strb.w	r4, [r2, #1]!
 800486c:	e7f8      	b.n	8004860 <memmove+0xc>
 800486e:	4283      	cmp	r3, r0
 8004870:	d9f5      	bls.n	800485e <memmove+0xa>
 8004872:	1881      	adds	r1, r0, r2
 8004874:	1ad2      	subs	r2, r2, r3
 8004876:	42d3      	cmn	r3, r2
 8004878:	d100      	bne.n	800487c <memmove+0x28>
 800487a:	bd10      	pop	{r4, pc}
 800487c:	f813 4d01 	ldrb.w	r4, [r3, #-1]!
 8004880:	f801 4d01 	strb.w	r4, [r1, #-1]!
 8004884:	e7f7      	b.n	8004876 <memmove+0x22>
	...

08004888 <_free_r>:
 8004888:	b538      	push	{r3, r4, r5, lr}
 800488a:	4605      	mov	r5, r0
 800488c:	2900      	cmp	r1, #0
 800488e:	d043      	beq.n	8004918 <_free_r+0x90>
 8004890:	f851 3c04 	ldr.w	r3, [r1, #-4]
 8004894:	1f0c      	subs	r4, r1, #4
 8004896:	2b00      	cmp	r3, #0
 8004898:	bfb8      	it	lt
 800489a:	18e4      	addlt	r4, r4, r3
 800489c:	f000 f8d0 	bl	8004a40 <__malloc_lock>
 80048a0:	4a1e      	ldr	r2, [pc, #120]	; (800491c <_free_r+0x94>)
 80048a2:	6813      	ldr	r3, [r2, #0]
 80048a4:	4610      	mov	r0, r2
 80048a6:	b933      	cbnz	r3, 80048b6 <_free_r+0x2e>
 80048a8:	6063      	str	r3, [r4, #4]
 80048aa:	6014      	str	r4, [r2, #0]
 80048ac:	4628      	mov	r0, r5
 80048ae:	e8bd 4038 	ldmia.w	sp!, {r3, r4, r5, lr}
 80048b2:	f000 b8c6 	b.w	8004a42 <__malloc_unlock>
 80048b6:	42a3      	cmp	r3, r4
 80048b8:	d90b      	bls.n	80048d2 <_free_r+0x4a>
 80048ba:	6821      	ldr	r1, [r4, #0]
 80048bc:	1862      	adds	r2, r4, r1
 80048be:	4293      	cmp	r3, r2
 80048c0:	bf01      	itttt	eq
 80048c2:	681a      	ldreq	r2, [r3, #0]
 80048c4:	685b      	ldreq	r3, [r3, #4]
 80048c6:	1852      	addeq	r2, r2, r1
 80048c8:	6022      	streq	r2, [r4, #0]
 80048ca:	6063      	str	r3, [r4, #4]
 80048cc:	6004      	str	r4, [r0, #0]
 80048ce:	e7ed      	b.n	80048ac <_free_r+0x24>
 80048d0:	4613      	mov	r3, r2
 80048d2:	685a      	ldr	r2, [r3, #4]
 80048d4:	b10a      	cbz	r2, 80048da <_free_r+0x52>
 80048d6:	42a2      	cmp	r2, r4
 80048d8:	d9fa      	bls.n	80048d0 <_free_r+0x48>
 80048da:	6819      	ldr	r1, [r3, #0]
 80048dc:	1858      	adds	r0, r3, r1
 80048de:	42a0      	cmp	r0, r4
 80048e0:	d10b      	bne.n	80048fa <_free_r+0x72>
 80048e2:	6820      	ldr	r0, [r4, #0]
 80048e4:	4401      	add	r1, r0
 80048e6:	1858      	adds	r0, r3, r1
 80048e8:	4282      	cmp	r2, r0
 80048ea:	6019      	str	r1, [r3, #0]
 80048ec:	d1de      	bne.n	80048ac <_free_r+0x24>
 80048ee:	6810      	ldr	r0, [r2, #0]
 80048f0:	6852      	ldr	r2, [r2, #4]
 80048f2:	4401      	add	r1, r0
 80048f4:	6019      	str	r1, [r3, #0]
 80048f6:	605a      	str	r2, [r3, #4]
 80048f8:	e7d8      	b.n	80048ac <_free_r+0x24>
 80048fa:	d902      	bls.n	8004902 <_free_r+0x7a>
 80048fc:	230c      	movs	r3, #12
 80048fe:	602b      	str	r3, [r5, #0]
 8004900:	e7d4      	b.n	80048ac <_free_r+0x24>
 8004902:	6820      	ldr	r0, [r4, #0]
 8004904:	1821      	adds	r1, r4, r0
 8004906:	428a      	cmp	r2, r1
 8004908:	bf01      	itttt	eq
 800490a:	6811      	ldreq	r1, [r2, #0]
 800490c:	6852      	ldreq	r2, [r2, #4]
 800490e:	1809      	addeq	r1, r1, r0
 8004910:	6021      	streq	r1, [r4, #0]
 8004912:	6062      	str	r2, [r4, #4]
 8004914:	605c      	str	r4, [r3, #4]
 8004916:	e7c9      	b.n	80048ac <_free_r+0x24>
 8004918:	bd38      	pop	{r3, r4, r5, pc}
 800491a:	bf00      	nop
 800491c:	20000604 	.word	0x20000604

08004920 <_malloc_r>:
 8004920:	b570      	push	{r4, r5, r6, lr}
 8004922:	1ccd      	adds	r5, r1, #3
 8004924:	f025 0503 	bic.w	r5, r5, #3
 8004928:	3508      	adds	r5, #8
 800492a:	2d0c      	cmp	r5, #12
 800492c:	bf38      	it	cc
 800492e:	250c      	movcc	r5, #12
 8004930:	2d00      	cmp	r5, #0
 8004932:	4606      	mov	r6, r0
 8004934:	db01      	blt.n	800493a <_malloc_r+0x1a>
 8004936:	42a9      	cmp	r1, r5
 8004938:	d903      	bls.n	8004942 <_malloc_r+0x22>
 800493a:	230c      	movs	r3, #12
 800493c:	6033      	str	r3, [r6, #0]
 800493e:	2000      	movs	r0, #0
 8004940:	bd70      	pop	{r4, r5, r6, pc}
 8004942:	f000 f87d 	bl	8004a40 <__malloc_lock>
 8004946:	4a21      	ldr	r2, [pc, #132]	; (80049cc <_malloc_r+0xac>)
 8004948:	6814      	ldr	r4, [r2, #0]
 800494a:	4621      	mov	r1, r4
 800494c:	b991      	cbnz	r1, 8004974 <_malloc_r+0x54>
 800494e:	4c20      	ldr	r4, [pc, #128]	; (80049d0 <_malloc_r+0xb0>)
 8004950:	6823      	ldr	r3, [r4, #0]
 8004952:	b91b      	cbnz	r3, 800495c <_malloc_r+0x3c>
 8004954:	4630      	mov	r0, r6
 8004956:	f000 f863 	bl	8004a20 <_sbrk_r>
 800495a:	6020      	str	r0, [r4, #0]
 800495c:	4629      	mov	r1, r5
 800495e:	4630      	mov	r0, r6
 8004960:	f000 f85e 	bl	8004a20 <_sbrk_r>
 8004964:	1c43      	adds	r3, r0, #1
 8004966:	d124      	bne.n	80049b2 <_malloc_r+0x92>
 8004968:	230c      	movs	r3, #12
 800496a:	4630      	mov	r0, r6
 800496c:	6033      	str	r3, [r6, #0]
 800496e:	f000 f868 	bl	8004a42 <__malloc_unlock>
 8004972:	e7e4      	b.n	800493e <_malloc_r+0x1e>
 8004974:	680b      	ldr	r3, [r1, #0]
 8004976:	1b5b      	subs	r3, r3, r5
 8004978:	d418      	bmi.n	80049ac <_malloc_r+0x8c>
 800497a:	2b0b      	cmp	r3, #11
 800497c:	d90f      	bls.n	800499e <_malloc_r+0x7e>
 800497e:	600b      	str	r3, [r1, #0]
 8004980:	18cc      	adds	r4, r1, r3
 8004982:	50cd      	str	r5, [r1, r3]
 8004984:	4630      	mov	r0, r6
 8004986:	f000 f85c 	bl	8004a42 <__malloc_unlock>
 800498a:	f104 000b 	add.w	r0, r4, #11
 800498e:	1d23      	adds	r3, r4, #4
 8004990:	f020 0007 	bic.w	r0, r0, #7
 8004994:	1ac3      	subs	r3, r0, r3
 8004996:	d0d3      	beq.n	8004940 <_malloc_r+0x20>
 8004998:	425a      	negs	r2, r3
 800499a:	50e2      	str	r2, [r4, r3]
 800499c:	e7d0      	b.n	8004940 <_malloc_r+0x20>
 800499e:	684b      	ldr	r3, [r1, #4]
 80049a0:	428c      	cmp	r4, r1
 80049a2:	bf16      	itet	ne
 80049a4:	6063      	strne	r3, [r4, #4]
 80049a6:	6013      	streq	r3, [r2, #0]
 80049a8:	460c      	movne	r4, r1
 80049aa:	e7eb      	b.n	8004984 <_malloc_r+0x64>
 80049ac:	460c      	mov	r4, r1
 80049ae:	6849      	ldr	r1, [r1, #4]
 80049b0:	e7cc      	b.n	800494c <_malloc_r+0x2c>
 80049b2:	1cc4      	adds	r4, r0, #3
 80049b4:	f024 0403 	bic.w	r4, r4, #3
 80049b8:	42a0      	cmp	r0, r4
 80049ba:	d005      	beq.n	80049c8 <_malloc_r+0xa8>
 80049bc:	1a21      	subs	r1, r4, r0
 80049be:	4630      	mov	r0, r6
 80049c0:	f000 f82e 	bl	8004a20 <_sbrk_r>
 80049c4:	3001      	adds	r0, #1
 80049c6:	d0cf      	beq.n	8004968 <_malloc_r+0x48>
 80049c8:	6025      	str	r5, [r4, #0]
 80049ca:	e7db      	b.n	8004984 <_malloc_r+0x64>
 80049cc:	20000604 	.word	0x20000604
 80049d0:	20000608 	.word	0x20000608

080049d4 <_realloc_r>:
 80049d4:	b5f8      	push	{r3, r4, r5, r6, r7, lr}
 80049d6:	4607      	mov	r7, r0
 80049d8:	4614      	mov	r4, r2
 80049da:	460e      	mov	r6, r1
 80049dc:	b921      	cbnz	r1, 80049e8 <_realloc_r+0x14>
 80049de:	e8bd 40f8 	ldmia.w	sp!, {r3, r4, r5, r6, r7, lr}
 80049e2:	4611      	mov	r1, r2
 80049e4:	f7ff bf9c 	b.w	8004920 <_malloc_r>
 80049e8:	b922      	cbnz	r2, 80049f4 <_realloc_r+0x20>
 80049ea:	f7ff ff4d 	bl	8004888 <_free_r>
 80049ee:	4625      	mov	r5, r4
 80049f0:	4628      	mov	r0, r5
 80049f2:	bdf8      	pop	{r3, r4, r5, r6, r7, pc}
 80049f4:	f000 f826 	bl	8004a44 <_malloc_usable_size_r>
 80049f8:	42a0      	cmp	r0, r4
 80049fa:	d20f      	bcs.n	8004a1c <_realloc_r+0x48>
 80049fc:	4621      	mov	r1, r4
 80049fe:	4638      	mov	r0, r7
 8004a00:	f7ff ff8e 	bl	8004920 <_malloc_r>
 8004a04:	4605      	mov	r5, r0
 8004a06:	2800      	cmp	r0, #0
 8004a08:	d0f2      	beq.n	80049f0 <_realloc_r+0x1c>
 8004a0a:	4631      	mov	r1, r6
 8004a0c:	4622      	mov	r2, r4
 8004a0e:	f7ff fc06 	bl	800421e <memcpy>
 8004a12:	4631      	mov	r1, r6
 8004a14:	4638      	mov	r0, r7
 8004a16:	f7ff ff37 	bl	8004888 <_free_r>
 8004a1a:	e7e9      	b.n	80049f0 <_realloc_r+0x1c>
 8004a1c:	4635      	mov	r5, r6
 8004a1e:	e7e7      	b.n	80049f0 <_realloc_r+0x1c>

08004a20 <_sbrk_r>:
 8004a20:	b538      	push	{r3, r4, r5, lr}
 8004a22:	2300      	movs	r3, #0
 8004a24:	4c05      	ldr	r4, [pc, #20]	; (8004a3c <_sbrk_r+0x1c>)
 8004a26:	4605      	mov	r5, r0
 8004a28:	4608      	mov	r0, r1
 8004a2a:	6023      	str	r3, [r4, #0]
 8004a2c:	f7fc fcec 	bl	8001408 <_sbrk>
 8004a30:	1c43      	adds	r3, r0, #1
 8004a32:	d102      	bne.n	8004a3a <_sbrk_r+0x1a>
 8004a34:	6823      	ldr	r3, [r4, #0]
 8004a36:	b103      	cbz	r3, 8004a3a <_sbrk_r+0x1a>
 8004a38:	602b      	str	r3, [r5, #0]
 8004a3a:	bd38      	pop	{r3, r4, r5, pc}
 8004a3c:	2000060c 	.word	0x2000060c

08004a40 <__malloc_lock>:
 8004a40:	4770      	bx	lr

08004a42 <__malloc_unlock>:
 8004a42:	4770      	bx	lr

08004a44 <_malloc_usable_size_r>:
 8004a44:	f851 3c04 	ldr.w	r3, [r1, #-4]
 8004a48:	1f18      	subs	r0, r3, #4
 8004a4a:	2b00      	cmp	r3, #0
 8004a4c:	bfbc      	itt	lt
 8004a4e:	580b      	ldrlt	r3, [r1, r0]
 8004a50:	18c0      	addlt	r0, r0, r3
 8004a52:	4770      	bx	lr

08004a54 <_init>:
 8004a54:	b5f8      	push	{r3, r4, r5, r6, r7, lr}
 8004a56:	bf00      	nop
 8004a58:	bcf8      	pop	{r3, r4, r5, r6, r7}
 8004a5a:	bc08      	pop	{r3}
 8004a5c:	469e      	mov	lr, r3
 8004a5e:	4770      	bx	lr

08004a60 <_fini>:
 8004a60:	b5f8      	push	{r3, r4, r5, r6, r7, lr}
 8004a62:	bf00      	nop
 8004a64:	bcf8      	pop	{r3, r4, r5, r6, r7}
 8004a66:	bc08      	pop	{r3}
 8004a68:	469e      	mov	lr, r3
 8004a6a:	4770      	bx	lr
